(dp1
S'v_subj(1.0).319'
p2
(dp3
I0
cnumpy.core.multiarray
_reconstruct
p4
(cnumpy
ndarray
p5
(I0
tS'b'
tRp6
(I1
(I0
tcnumpy
dtype
p7
(S'f8'
I0
I1
tRp8
(I3
S'<'
NNNI-1
I-1
I0
tbI00
S''
tbssS'z_trans(2)'
p9
(dp10
I0
g4
(g5
(I0
tS'b'
tRp11
(I1
(I0
tg8
I00
S''
tbssS'v_subj(1.0).312'
p12
(dp13
I0
g4
(g5
(I0
tS'b'
tRp14
(I1
(I0
tg8
I00
S''
tbssS'v_subj(1.0).313'
p15
(dp16
I0
g4
(g5
(I0
tS'b'
tRp17
(I1
(I0
tg8
I00
S''
tbssS'v_subj(1.0).310'
p18
(dp19
I0
g4
(g5
(I0
tS'b'
tRp20
(I1
(I0
tg8
I00
S''
tbssS'v_subj(1.0).311'
p21
(dp22
I0
g4
(g5
(I0
tS'b'
tRp23
(I1
(I0
tg8
I00
S''
tbssS'v_subj(1.0).317'
p24
(dp25
I0
g4
(g5
(I0
tS'b'
tRp26
(I1
(I0
tg8
I00
S''
tbssS'v_subj(1.0).314'
p27
(dp28
I0
g4
(g5
(I0
tS'b'
tRp29
(I1
(I0
tg8
I00
S''
tbssS'v_subj(1.0).315'
p30
(dp31
I0
g4
(g5
(I0
tS'b'
tRp32
(I1
(I0
tg8
I00
S''
tbssS't_subj(2).328'
p33
(dp34
I0
g4
(g5
(I0
tS'b'
tRp35
(I1
(I0
tg8
I00
S''
tbssS't_subj(2).329'
p36
(dp37
I0
g4
(g5
(I0
tS'b'
tRp38
(I1
(I0
tg8
I00
S''
tbssS't_subj(2).324'
p39
(dp40
I0
g4
(g5
(I0
tS'b'
tRp41
(I1
(I0
tg8
I00
S''
tbssS't_subj(2).325'
p42
(dp43
I0
g4
(g5
(I0
tS'b'
tRp44
(I1
(I0
tg8
I00
S''
tbssS't_subj(2).320'
p45
(dp46
I0
g4
(g5
(I0
tS'b'
tRp47
(I1
(I0
tg8
I00
S''
tbssS't_subj(2).322'
p48
(dp49
I0
g4
(g5
(I0
tS'b'
tRp50
(I1
(I0
tg8
I00
S''
tbssS't_subj(2).323'
p51
(dp52
I0
g4
(g5
(I0
tS'b'
tRp53
(I1
(I0
tg8
I00
S''
tbssS'v_subj(1.1).319'
p54
(dp55
I0
g4
(g5
(I0
tS'b'
tRp56
(I1
(I0
tg8
I00
S''
tbssS't_subj(3).305'
p57
(dp58
I0
g4
(g5
(I0
tS'b'
tRp59
(I1
(I0
tg8
I00
S''
tbssS't_subj(3).304'
p60
(dp61
I0
g4
(g5
(I0
tS'b'
tRp62
(I1
(I0
tg8
I00
S''
tbssS't_subj(3).309'
p63
(dp64
I0
g4
(g5
(I0
tS'b'
tRp65
(I1
(I0
tg8
I00
S''
tbssS't_subj(3).308'
p66
(dp67
I0
g4
(g5
(I0
tS'b'
tRp68
(I1
(I0
tg8
I00
S''
tbssS'v_subj(1.1).313'
p69
(dp70
I0
g4
(g5
(I0
tS'b'
tRp71
(I1
(I0
tg8
I00
S''
tbssS'v_subj(1.1).312'
p72
(dp73
I0
g4
(g5
(I0
tS'b'
tRp74
(I1
(I0
tg8
I00
S''
tbssS'v_subj(1.1).315'
p75
(dp76
I0
g4
(g5
(I0
tS'b'
tRp77
(I1
(I0
tg8
I00
S''
tbssS'v_subj(1.1).314'
p78
(dp79
I0
g4
(g5
(I0
tS'b'
tRp80
(I1
(I0
tg8
I00
S''
tbssS'v_subj(1.1).317'
p81
(dp82
I0
g4
(g5
(I0
tS'b'
tRp83
(I1
(I0
tg8
I00
S''
tbssS'v_subj(2.0).313'
p84
(dp85
I0
g4
(g5
(I0
tS'b'
tRp86
(I1
(I0
tg8
I00
S''
tbssS'v_subj(2.0).312'
p87
(dp88
I0
g4
(g5
(I0
tS'b'
tRp89
(I1
(I0
tg8
I00
S''
tbssS'v_subj(2.0).311'
p90
(dp91
I0
g4
(g5
(I0
tS'b'
tRp92
(I1
(I0
tg8
I00
S''
tbssS'v_subj(2.0).310'
p93
(dp94
I0
g4
(g5
(I0
tS'b'
tRp95
(I1
(I0
tg8
I00
S''
tbssS'v_subj(2.0).317'
p96
(dp97
I0
g4
(g5
(I0
tS'b'
tRp98
(I1
(I0
tg8
I00
S''
tbssS'v_subj(2.0).315'
p99
(dp100
I0
g4
(g5
(I0
tS'b'
tRp101
(I1
(I0
tg8
I00
S''
tbssS'v_subj(2.0).319'
p102
(dp103
I0
g4
(g5
(I0
tS'b'
tRp104
(I1
(I0
tg8
I00
S''
tbssS'z_subj_trans(2).319'
p105
(dp106
I0
g4
(g5
(I0
tS'b'
tRp107
(I1
(I0
tg8
I00
S''
tbssS'v_subj(3.0).309'
p108
(dp109
I0
g4
(g5
(I0
tS'b'
tRp110
(I1
(I0
tg8
I00
S''
tbssS'v_subj(3.0).308'
p111
(dp112
I0
g4
(g5
(I0
tS'b'
tRp113
(I1
(I0
tg8
I00
S''
tbssS'z_subj_trans(2).310'
p114
(dp115
I0
g4
(g5
(I0
tS'b'
tRp116
(I1
(I0
tg8
I00
S''
tbssS'z_subj_trans(2).311'
p117
(dp118
I0
g4
(g5
(I0
tS'b'
tRp119
(I1
(I0
tg8
I00
S''
tbssS'z_subj_trans(2).312'
p120
(dp121
I0
g4
(g5
(I0
tS'b'
tRp122
(I1
(I0
tg8
I00
S''
tbssS'z_subj_trans(2).313'
p123
(dp124
I0
g4
(g5
(I0
tS'b'
tRp125
(I1
(I0
tg8
I00
S''
tbssS'z_subj_trans(2).315'
p126
(dp127
I0
g4
(g5
(I0
tS'b'
tRp128
(I1
(I0
tg8
I00
S''
tbssS'v_subj(3.0).305'
p129
(dp130
I0
g4
(g5
(I0
tS'b'
tRp131
(I1
(I0
tg8
I00
S''
tbssS'v_subj(3.0).304'
p132
(dp133
I0
g4
(g5
(I0
tS'b'
tRp134
(I1
(I0
tg8
I00
S''
tbssS'a_subj(3).319'
p135
(dp136
I0
g4
(g5
(I0
tS'b'
tRp137
(I1
(I0
tg8
I00
S''
tbssS'a_subj(3).317'
p138
(dp139
I0
g4
(g5
(I0
tS'b'
tRp140
(I1
(I0
tg8
I00
S''
tbssS'a_subj(3).315'
p141
(dp142
I0
g4
(g5
(I0
tS'b'
tRp143
(I1
(I0
tg8
I00
S''
tbssS'a(3)'
p144
(dp145
I0
g4
(g5
(I0
tS'b'
tRp146
(I1
(I0
tg8
I00
S''
tbssS'a_subj(3).313'
p147
(dp148
I0
g4
(g5
(I0
tS'b'
tRp149
(I1
(I0
tg8
I00
S''
tbssS'a_subj(3).311'
p150
(dp151
I0
g4
(g5
(I0
tS'b'
tRp152
(I1
(I0
tg8
I00
S''
tbssS'a_subj(3).310'
p153
(dp154
I0
g4
(g5
(I0
tS'b'
tRp155
(I1
(I0
tg8
I00
S''
tbssS't_subj(1).329'
p156
(dp157
I0
g4
(g5
(I0
tS'b'
tRp158
(I1
(I0
tg8
I00
S''
tbssS't_subj(1).328'
p159
(dp160
I0
g4
(g5
(I0
tS'b'
tRp161
(I1
(I0
tg8
I00
S''
tbssS't_subj(1).320'
p162
(dp163
I0
g4
(g5
(I0
tS'b'
tRp164
(I1
(I0
tg8
I00
S''
tbssS't_subj(1).323'
p165
(dp166
I0
g4
(g5
(I0
tS'b'
tRp167
(I1
(I0
tg8
I00
S''
tbssS't_subj(1).322'
p168
(dp169
I0
g4
(g5
(I0
tS'b'
tRp170
(I1
(I0
tg8
I00
S''
tbssS't_subj(1).325'
p171
(dp172
I0
g4
(g5
(I0
tS'b'
tRp173
(I1
(I0
tg8
I00
S''
tbssS't_subj(1).324'
p174
(dp175
I0
g4
(g5
(I0
tS'b'
tRp176
(I1
(I0
tg8
I00
S''
tbssS'a(1)'
p177
(dp178
I0
g4
(g5
(I0
tS'b'
tRp179
(I1
(I0
tg8
I00
S''
tbssS'v_subj(3.0).310'
p180
(dp181
I0
g4
(g5
(I0
tS'b'
tRp182
(I1
(I0
tg8
I00
S''
tbssS'z_subj(3).309'
p183
(dp184
I0
g4
(g5
(I0
tS'b'
tRp185
(I1
(I0
tg8
I00
S''
tbssS'z_subj(3).308'
p186
(dp187
I0
g4
(g5
(I0
tS'b'
tRp188
(I1
(I0
tg8
I00
S''
tbssS'z_subj_trans(2).324'
p189
(dp190
I0
g4
(g5
(I0
tS'b'
tRp191
(I1
(I0
tg8
I00
S''
tbssS'z_subj(3).305'
p192
(dp193
I0
g4
(g5
(I0
tS'b'
tRp194
(I1
(I0
tg8
I00
S''
tbssS'z_subj(3).304'
p195
(dp196
I0
g4
(g5
(I0
tS'b'
tRp197
(I1
(I0
tg8
I00
S''
tbssS'v_subj(3.0).315'
p198
(dp199
I0
g4
(g5
(I0
tS'b'
tRp200
(I1
(I0
tg8
I00
S''
tbssS'z_subj_trans(2).322'
p201
(dp202
I0
g4
(g5
(I0
tS'b'
tRp203
(I1
(I0
tg8
I00
S''
tbssS'v(1.1)'
p204
(dp205
I0
g4
(g5
(I0
tS'b'
tRp206
(I1
(I0
tg8
I00
S''
tbssS'z_subj_trans(3).317'
p207
(dp208
I0
g4
(g5
(I0
tS'b'
tRp209
(I1
(I0
tg8
I00
S''
tbssS'z_subj_trans(3).315'
p210
(dp211
I0
g4
(g5
(I0
tS'b'
tRp212
(I1
(I0
tg8
I00
S''
tbssS'z_subj_trans(3).313'
p213
(dp214
I0
g4
(g5
(I0
tS'b'
tRp215
(I1
(I0
tg8
I00
S''
tbssS'z_subj_trans(3).311'
p216
(dp217
I0
g4
(g5
(I0
tS'b'
tRp218
(I1
(I0
tg8
I00
S''
tbssS'z_subj_trans(3).310'
p219
(dp220
I0
g4
(g5
(I0
tS'b'
tRp221
(I1
(I0
tg8
I00
S''
tbssS'z_subj_trans(3).319'
p222
(dp223
I0
g4
(g5
(I0
tS'b'
tRp224
(I1
(I0
tg8
I00
S''
tbssS'v(3.1)'
p225
(dp226
I0
g4
(g5
(I0
tS'b'
tRp227
(I1
(I0
tg8
I00
S''
tbssS'z_trans(1)'
p228
(dp229
I0
g4
(g5
(I0
tS'b'
tRp230
(I1
(I0
tg8
I00
S''
tbssS'a_subj(2).315'
p231
(dp232
I0
g4
(g5
(I0
tS'b'
tRp233
(I1
(I0
tg8
I00
S''
tbssS'v_subj(1.0).323'
p234
(dp235
I0
g4
(g5
(I0
tS'b'
tRp236
(I1
(I0
tg8
I00
S''
tbssS'v_subj(1.0).322'
p237
(dp238
I0
g4
(g5
(I0
tS'b'
tRp239
(I1
(I0
tg8
I00
S''
tbssS'v_subj(1.0).320'
p240
(dp241
I0
g4
(g5
(I0
tS'b'
tRp242
(I1
(I0
tg8
I00
S''
tbssS'v_subj(1.0).325'
p243
(dp244
I0
g4
(g5
(I0
tS'b'
tRp245
(I1
(I0
tg8
I00
S''
tbssS'v_subj(1.0).324'
p246
(dp247
I0
g4
(g5
(I0
tS'b'
tRp248
(I1
(I0
tg8
I00
S''
tbssS'v_subj(1.0).329'
p249
(dp250
I0
g4
(g5
(I0
tS'b'
tRp251
(I1
(I0
tg8
I00
S''
tbssS'v_subj(1.0).328'
p252
(dp253
I0
g4
(g5
(I0
tS'b'
tRp254
(I1
(I0
tg8
I00
S''
tbssS'a_subj(2).311'
p255
(dp256
I0
g4
(g5
(I0
tS'b'
tRp257
(I1
(I0
tg8
I00
S''
tbssS't_subj(2).315'
p258
(dp259
I0
g4
(g5
(I0
tS'b'
tRp260
(I1
(I0
tg8
I00
S''
tbssS't_subj(2).317'
p261
(dp262
I0
g4
(g5
(I0
tS'b'
tRp263
(I1
(I0
tg8
I00
S''
tbssS't_subj(2).311'
p264
(dp265
I0
g4
(g5
(I0
tS'b'
tRp266
(I1
(I0
tg8
I00
S''
tbssS'a_subj(2).312'
p267
(dp268
I0
g4
(g5
(I0
tS'b'
tRp269
(I1
(I0
tg8
I00
S''
tbssS't_subj(2).313'
p270
(dp271
I0
g4
(g5
(I0
tS'b'
tRp272
(I1
(I0
tg8
I00
S''
tbssS't_subj(2).312'
p273
(dp274
I0
g4
(g5
(I0
tS'b'
tRp275
(I1
(I0
tg8
I00
S''
tbssS'z_subj(3).322'
p276
(dp277
I0
g4
(g5
(I0
tS'b'
tRp278
(I1
(I0
tg8
I00
S''
tbssS't_subj(2).319'
p279
(dp280
I0
g4
(g5
(I0
tS'b'
tRp281
(I1
(I0
tg8
I00
S''
tbssS'a_subj(2).303'
p282
(dp283
I0
g4
(g5
(I0
tS'b'
tRp284
(I1
(I0
tg8
I00
S''
tbssS'a_subj(2).302'
p285
(dp286
I0
g4
(g5
(I0
tS'b'
tRp287
(I1
(I0
tg8
I00
S''
tbssS'a_subj(2).307'
p288
(dp289
I0
g4
(g5
(I0
tS'b'
tRp290
(I1
(I0
tg8
I00
S''
tbssS'a_subj(2).305'
p291
(dp292
I0
g4
(g5
(I0
tS'b'
tRp293
(I1
(I0
tg8
I00
S''
tbssS'a_subj(2).304'
p294
(dp295
I0
g4
(g5
(I0
tS'b'
tRp296
(I1
(I0
tg8
I00
S''
tbssS'a_subj(2).309'
p297
(dp298
I0
g4
(g5
(I0
tS'b'
tRp299
(I1
(I0
tg8
I00
S''
tbssS'a_subj(2).308'
p300
(dp301
I0
g4
(g5
(I0
tS'b'
tRp302
(I1
(I0
tg8
I00
S''
tbssS'v_subj(2.1).329'
p303
(dp304
I0
g4
(g5
(I0
tS'b'
tRp305
(I1
(I0
tg8
I00
S''
tbssS'v_subj(2.1).328'
p306
(dp307
I0
g4
(g5
(I0
tS'b'
tRp308
(I1
(I0
tg8
I00
S''
tbssS'v_subj(2.1).320'
p309
(dp310
I0
g4
(g5
(I0
tS'b'
tRp311
(I1
(I0
tg8
I00
S''
tbssS'v_subj(2.1).323'
p312
(dp313
I0
g4
(g5
(I0
tS'b'
tRp314
(I1
(I0
tg8
I00
S''
tbssS'v_subj(2.1).322'
p315
(dp316
I0
g4
(g5
(I0
tS'b'
tRp317
(I1
(I0
tg8
I00
S''
tbssS'v_subj(2.1).325'
p318
(dp319
I0
g4
(g5
(I0
tS'b'
tRp320
(I1
(I0
tg8
I00
S''
tbssS'v_subj(2.1).324'
p321
(dp322
I0
g4
(g5
(I0
tS'b'
tRp323
(I1
(I0
tg8
I00
S''
tbssS'z_subj(1).317'
p324
(dp325
I0
g4
(g5
(I0
tS'b'
tRp326
(I1
(I0
tg8
I00
S''
tbssS'z_subj(1).314'
p327
(dp328
I0
g4
(g5
(I0
tS'b'
tRp329
(I1
(I0
tg8
I00
S''
tbssS'z_subj(1).315'
p330
(dp331
I0
g4
(g5
(I0
tS'b'
tRp332
(I1
(I0
tg8
I00
S''
tbssS'z_subj(1).312'
p333
(dp334
I0
g4
(g5
(I0
tS'b'
tRp335
(I1
(I0
tg8
I00
S''
tbssS'z_subj(1).313'
p336
(dp337
I0
g4
(g5
(I0
tS'b'
tRp338
(I1
(I0
tg8
I00
S''
tbssS'z_subj(1).310'
p339
(dp340
I0
g4
(g5
(I0
tS'b'
tRp341
(I1
(I0
tg8
I00
S''
tbssS'z_subj(1).311'
p342
(dp343
I0
g4
(g5
(I0
tS'b'
tRp344
(I1
(I0
tg8
I00
S''
tbssS'z(3)'
p345
(dp346
I0
g4
(g5
(I0
tS'b'
tRp347
(I1
(I0
tg8
I00
S''
tbssS'z_subj(1).319'
p348
(dp349
I0
g4
(g5
(I0
tS'b'
tRp350
(I1
(I0
tg8
I00
S''
tbssS'z_subj_trans(1).319'
p351
(dp352
I0
g4
(g5
(I0
tS'b'
tRp353
(I1
(I0
tg8
I00
S''
tbssS'v_subj(3.1).324'
p354
(dp355
I0
g4
(g5
(I0
tS'b'
tRp356
(I1
(I0
tg8
I00
S''
tbssS'v_subj(3.1).325'
p357
(dp358
I0
g4
(g5
(I0
tS'b'
tRp359
(I1
(I0
tg8
I00
S''
tbssS'v_subj(3.1).322'
p360
(dp361
I0
g4
(g5
(I0
tS'b'
tRp362
(I1
(I0
tg8
I00
S''
tbssS'v_subj(3.1).323'
p363
(dp364
I0
g4
(g5
(I0
tS'b'
tRp365
(I1
(I0
tg8
I00
S''
tbssS'v_subj(3.1).320'
p366
(dp367
I0
g4
(g5
(I0
tS'b'
tRp368
(I1
(I0
tg8
I00
S''
tbssS'z_subj_trans(1).311'
p369
(dp370
I0
g4
(g5
(I0
tS'b'
tRp371
(I1
(I0
tg8
I00
S''
tbssS'z_subj_trans(1).310'
p372
(dp373
I0
g4
(g5
(I0
tS'b'
tRp374
(I1
(I0
tg8
I00
S''
tbssS'z_subj_trans(1).313'
p375
(dp376
I0
g4
(g5
(I0
tS'b'
tRp377
(I1
(I0
tg8
I00
S''
tbssS'z_subj_trans(1).312'
p378
(dp379
I0
g4
(g5
(I0
tS'b'
tRp380
(I1
(I0
tg8
I00
S''
tbssS'z_subj_trans(1).315'
p381
(dp382
I0
g4
(g5
(I0
tS'b'
tRp383
(I1
(I0
tg8
I00
S''
tbssS'z_subj_trans(1).314'
p384
(dp385
I0
g4
(g5
(I0
tS'b'
tRp386
(I1
(I0
tg8
I00
S''
tbssS'z_subj_trans(1).317'
p387
(dp388
I0
g4
(g5
(I0
tS'b'
tRp389
(I1
(I0
tg8
I00
S''
tbssS'v_subj(3.1).329'
p390
(dp391
I0
g4
(g5
(I0
tS'b'
tRp392
(I1
(I0
tg8
I00
S''
tbssS'v_subj(3.0).323'
p393
(dp394
I0
g4
(g5
(I0
tS'b'
tRp395
(I1
(I0
tg8
I00
S''
tbssS'a_subj(1).302'
p396
(dp397
I0
g4
(g5
(I0
tS'b'
tRp398
(I1
(I0
tg8
I00
S''
tbssS'a_subj(1).303'
p399
(dp400
I0
g4
(g5
(I0
tS'b'
tRp401
(I1
(I0
tg8
I00
S''
tbssS'a_subj(1).307'
p402
(dp403
I0
g4
(g5
(I0
tS'b'
tRp404
(I1
(I0
tg8
I00
S''
tbssS'a_subj(1).304'
p405
(dp406
I0
g4
(g5
(I0
tS'b'
tRp407
(I1
(I0
tg8
I00
S''
tbssS'a_subj(1).305'
p408
(dp409
I0
g4
(g5
(I0
tS'b'
tRp410
(I1
(I0
tg8
I00
S''
tbssS'a_subj(1).308'
p411
(dp412
I0
g4
(g5
(I0
tS'b'
tRp413
(I1
(I0
tg8
I00
S''
tbssS'a_subj(1).309'
p414
(dp415
I0
g4
(g5
(I0
tS'b'
tRp416
(I1
(I0
tg8
I00
S''
tbssS'z_subj(2).302'
p417
(dp418
I0
g4
(g5
(I0
tS'b'
tRp419
(I1
(I0
tg8
I00
S''
tbssS'z_subj(2).303'
p420
(dp421
I0
g4
(g5
(I0
tS'b'
tRp422
(I1
(I0
tg8
I00
S''
tbssS'z_subj(2).304'
p423
(dp424
I0
g4
(g5
(I0
tS'b'
tRp425
(I1
(I0
tg8
I00
S''
tbssS'z_subj(2).305'
p426
(dp427
I0
g4
(g5
(I0
tS'b'
tRp428
(I1
(I0
tg8
I00
S''
tbssS'z_subj(2).307'
p429
(dp430
I0
g4
(g5
(I0
tS'b'
tRp431
(I1
(I0
tg8
I00
S''
tbssS'z_subj(2).308'
p432
(dp433
I0
g4
(g5
(I0
tS'b'
tRp434
(I1
(I0
tg8
I00
S''
tbssS'z_subj(2).309'
p435
(dp436
I0
g4
(g5
(I0
tS'b'
tRp437
(I1
(I0
tg8
I00
S''
tbssS'v_subj(1.1).311'
p438
(dp439
I0
g4
(g5
(I0
tS'b'
tRp440
(I1
(I0
tg8
I00
S''
tbssS'v_subj(1.1).310'
p441
(dp442
I0
g4
(g5
(I0
tS'b'
tRp443
(I1
(I0
tg8
I00
S''
tbssS'a_std'
p444
(dp445
I0
g4
(g5
(I0
tS'b'
tRp446
(I1
(I0
tg8
I00
S''
tbssS't_subj(3).313'
p447
(dp448
I0
g4
(g5
(I0
tS'b'
tRp449
(I1
(I0
tg8
I00
S''
tbssS'v_subj(1.1).304'
p450
(dp451
I0
g4
(g5
(I0
tS'b'
tRp452
(I1
(I0
tg8
I00
S''
tbssS't_subj(3).311'
p453
(dp454
I0
g4
(g5
(I0
tS'b'
tRp455
(I1
(I0
tg8
I00
S''
tbssS'v_subj(1.1).302'
p456
(dp457
I0
g4
(g5
(I0
tS'b'
tRp458
(I1
(I0
tg8
I00
S''
tbssS't_subj(3).317'
p459
(dp460
I0
g4
(g5
(I0
tS'b'
tRp461
(I1
(I0
tg8
I00
S''
tbssS't_subj(3).315'
p462
(dp463
I0
g4
(g5
(I0
tS'b'
tRp464
(I1
(I0
tg8
I00
S''
tbssS't_subj(3).319'
p465
(dp466
I0
g4
(g5
(I0
tS'b'
tRp467
(I1
(I0
tg8
I00
S''
tbssS'v_subj(1.1).308'
p468
(dp469
I0
g4
(g5
(I0
tS'b'
tRp470
(I1
(I0
tg8
I00
S''
tbssS'v_subj(1.1).309'
p471
(dp472
I0
g4
(g5
(I0
tS'b'
tRp473
(I1
(I0
tg8
I00
S''
tbssS'v_subj(2.0).302'
p474
(dp475
I0
g4
(g5
(I0
tS'b'
tRp476
(I1
(I0
tg8
I00
S''
tbssS'v_subj(2.0).303'
p477
(dp478
I0
g4
(g5
(I0
tS'b'
tRp479
(I1
(I0
tg8
I00
S''
tbssS'v_subj(2.0).304'
p480
(dp481
I0
g4
(g5
(I0
tS'b'
tRp482
(I1
(I0
tg8
I00
S''
tbssS'v_subj(2.0).305'
p483
(dp484
I0
g4
(g5
(I0
tS'b'
tRp485
(I1
(I0
tg8
I00
S''
tbssS'v_subj(2.0).307'
p486
(dp487
I0
g4
(g5
(I0
tS'b'
tRp488
(I1
(I0
tg8
I00
S''
tbssS'v_subj(2.0).308'
p489
(dp490
I0
g4
(g5
(I0
tS'b'
tRp491
(I1
(I0
tg8
I00
S''
tbssS'v_subj(2.0).309'
p492
(dp493
I0
g4
(g5
(I0
tS'b'
tRp494
(I1
(I0
tg8
I00
S''
tbssS'v_subj(3.0).319'
p495
(dp496
I0
g4
(g5
(I0
tS'b'
tRp497
(I1
(I0
tg8
I00
S''
tbssS'z_subj_trans(2).329'
p498
(dp499
I0
g4
(g5
(I0
tS'b'
tRp500
(I1
(I0
tg8
I00
S''
tbssS'z_subj_trans(2).328'
p501
(dp502
I0
g4
(g5
(I0
tS'b'
tRp503
(I1
(I0
tg8
I00
S''
tbssS'z_subj_trans(2).325'
p504
(dp505
I0
g4
(g5
(I0
tS'b'
tRp506
(I1
(I0
tg8
I00
S''
tbssS'v_subj(3.0).311'
p507
(dp508
I0
g4
(g5
(I0
tS'b'
tRp509
(I1
(I0
tg8
I00
S''
tbssS'v_subj(3.0).313'
p510
(dp511
I0
g4
(g5
(I0
tS'b'
tRp512
(I1
(I0
tg8
I00
S''
tbssS'z_subj_trans(2).320'
p513
(dp514
I0
g4
(g5
(I0
tS'b'
tRp515
(I1
(I0
tg8
I00
S''
tbssS'z_subj_trans(2).323'
p516
(dp517
I0
g4
(g5
(I0
tS'b'
tRp518
(I1
(I0
tg8
I00
S''
tbssS'v_subj(3.0).317'
p519
(dp520
I0
g4
(g5
(I0
tS'b'
tRp521
(I1
(I0
tg8
I00
S''
tbssS'a_subj(3).308'
p522
(dp523
I0
g4
(g5
(I0
tS'b'
tRp524
(I1
(I0
tg8
I00
S''
tbssS'a_subj(3).309'
p525
(dp526
I0
g4
(g5
(I0
tS'b'
tRp527
(I1
(I0
tg8
I00
S''
tbssS'a(2)'
p528
(dp529
I0
g4
(g5
(I0
tS'b'
tRp530
(I1
(I0
tg8
I00
S''
tbssS'a_subj(3).304'
p531
(dp532
I0
g4
(g5
(I0
tS'b'
tRp533
(I1
(I0
tg8
I00
S''
tbssS'a_subj(3).305'
p534
(dp535
I0
g4
(g5
(I0
tS'b'
tRp536
(I1
(I0
tg8
I00
S''
tbssS't_subj(1).338'
p537
(dp538
I0
g4
(g5
(I0
tS'b'
tRp539
(I1
(I0
tg8
I00
S''
tbssS't(2)'
p540
(dp541
I0
g4
(g5
(I0
tS'b'
tRp542
(I1
(I0
tg8
I00
S''
tbssS't_subj(1).332'
p543
(dp544
I0
g4
(g5
(I0
tS'b'
tRp545
(I1
(I0
tg8
I00
S''
tbssS't_subj(1).336'
p546
(dp547
I0
g4
(g5
(I0
tS'b'
tRp548
(I1
(I0
tg8
I00
S''
tbssS't_subj(1).334'
p549
(dp550
I0
g4
(g5
(I0
tS'b'
tRp551
(I1
(I0
tg8
I00
S''
tbssS'z_subj(3).315'
p552
(dp553
I0
g4
(g5
(I0
tS'b'
tRp554
(I1
(I0
tg8
I00
S''
tbssS'z_subj(3).317'
p555
(dp556
I0
g4
(g5
(I0
tS'b'
tRp557
(I1
(I0
tg8
I00
S''
tbssS'z_subj(3).310'
p558
(dp559
I0
g4
(g5
(I0
tS'b'
tRp560
(I1
(I0
tg8
I00
S''
tbssS'z_subj(3).311'
p561
(dp562
I0
g4
(g5
(I0
tS'b'
tRp563
(I1
(I0
tg8
I00
S''
tbssS'z_subj(3).313'
p564
(dp565
I0
g4
(g5
(I0
tS'b'
tRp566
(I1
(I0
tg8
I00
S''
tbssS'z_subj(3).319'
p567
(dp568
I0
g4
(g5
(I0
tS'b'
tRp569
(I1
(I0
tg8
I00
S''
tbssS'v_subj(3.1).319'
p570
(dp571
I0
g4
(g5
(I0
tS'b'
tRp572
(I1
(I0
tg8
I00
S''
tbssS'v_subj(3.1).317'
p573
(dp574
I0
g4
(g5
(I0
tS'b'
tRp575
(I1
(I0
tg8
I00
S''
tbssS'v_subj(3.1).315'
p576
(dp577
I0
g4
(g5
(I0
tS'b'
tRp578
(I1
(I0
tg8
I00
S''
tbssS'v_subj(3.1).313'
p579
(dp580
I0
g4
(g5
(I0
tS'b'
tRp581
(I1
(I0
tg8
I00
S''
tbssS'v_subj(3.1).311'
p582
(dp583
I0
g4
(g5
(I0
tS'b'
tRp584
(I1
(I0
tg8
I00
S''
tbssS'v_subj(3.1).310'
p585
(dp586
I0
g4
(g5
(I0
tS'b'
tRp587
(I1
(I0
tg8
I00
S''
tbssS'v(1.0)'
p588
(dp589
I0
g4
(g5
(I0
tS'b'
tRp590
(I1
(I0
tg8
I00
S''
tbssS'v(3.0)'
p591
(dp592
I0
g4
(g5
(I0
tS'b'
tRp593
(I1
(I0
tg8
I00
S''
tbssS'z_subj_trans(3).304'
p594
(dp595
I0
g4
(g5
(I0
tS'b'
tRp596
(I1
(I0
tg8
I00
S''
tbssS'z_subj_trans(3).305'
p597
(dp598
I0
g4
(g5
(I0
tS'b'
tRp599
(I1
(I0
tg8
I00
S''
tbssS'z_subj_trans(2).317'
p600
(dp601
I0
g4
(g5
(I0
tS'b'
tRp602
(I1
(I0
tg8
I00
S''
tbssS'z_subj_trans(3).308'
p603
(dp604
I0
g4
(g5
(I0
tS'b'
tRp605
(I1
(I0
tg8
I00
S''
tbssS'z_subj_trans(3).309'
p606
(dp607
I0
g4
(g5
(I0
tS'b'
tRp608
(I1
(I0
tg8
I00
S''
tbssS'z_subj(2).338'
p609
(dp610
I0
g4
(g5
(I0
tS'b'
tRp611
(I1
(I0
tg8
I00
S''
tbssS'z_subj(2).332'
p612
(dp613
I0
g4
(g5
(I0
tS'b'
tRp614
(I1
(I0
tg8
I00
S''
tbssS'z_subj(2).334'
p615
(dp616
I0
g4
(g5
(I0
tS'b'
tRp617
(I1
(I0
tg8
I00
S''
tbssS'z_subj(2).336'
p618
(dp619
I0
g4
(g5
(I0
tS'b'
tRp620
(I1
(I0
tg8
I00
S''
tbssS'a_subj(2).336'
p621
(dp622
I0
g4
(g5
(I0
tS'b'
tRp623
(I1
(I0
tg8
I00
S''
tbssS'v_subj(1.0).332'
p624
(dp625
I0
g4
(g5
(I0
tS'b'
tRp626
(I1
(I0
tg8
I00
S''
tbssS'v_subj(1.0).334'
p627
(dp628
I0
g4
(g5
(I0
tS'b'
tRp629
(I1
(I0
tg8
I00
S''
tbssS'_state_'
p630
(dp631
S'stochastics'
p632
(dp633
g2
g4
(g5
(I0
tS'b'
tRp634
(I1
(tg8
I00
S'\xda\x84\x1ev\x92S\x07@'
tbsg9
g4
(g5
(I0
tS'b'
tRp635
(I1
(tg8
I00
S'^K o;\xbb\xe1\xbf'
tbsg12
g4
(g5
(I0
tS'b'
tRp636
(I1
(tg8
I00
S'1\x03\xb7\xe6\xab\x8e\x06@'
tbsg15
g4
(g5
(I0
tS'b'
tRp637
(I1
(tg8
I00
S'Nb\x11\xb9\xe6\xbb\x05@'
tbsg18
g4
(g5
(I0
tS'b'
tRp638
(I1
(tg8
I00
S'\xa6@\xd2\xe6Zw\x08@'
tbsg21
g4
(g5
(I0
tS'b'
tRp639
(I1
(tg8
I00
S'\xff1\xc1\x8b\x8b\xd4\x08@'
tbsg24
g4
(g5
(I0
tS'b'
tRp640
(I1
(tg8
I00
S'\xd1*\xbc?\x17\xb4\x0f@'
tbsg27
g4
(g5
(I0
tS'b'
tRp641
(I1
(tg8
I00
S'\x88\xab\xc3ln\xcc\x04@'
tbsg30
g4
(g5
(I0
tS'b'
tRp642
(I1
(tg8
I00
S'\x13\xe7U\xf0\xd5r\xfc?'
tbsg33
g4
(g5
(I0
tS'b'
tRp643
(I1
(tg8
I00
S' \xdd\x9f\xb9m\xa3P?'
tbsg36
g4
(g5
(I0
tS'b'
tRp644
(I1
(tg8
I00
S"\x04B\xeb9\xa5'\xa9?"
tbsg39
g4
(g5
(I0
tS'b'
tRp645
(I1
(tg8
I00
S'\xf2d\xc2\xf8g\xb4\xb4?'
tbsg42
g4
(g5
(I0
tS'b'
tRp646
(I1
(tg8
I00
S'\xaaa\xf3`fD\xbc?'
tbsg45
g4
(g5
(I0
tS'b'
tRp647
(I1
(tg8
I00
S'\xf8\xed{\xfa\\:\xc9?'
tbsg48
g4
(g5
(I0
tS'b'
tRp648
(I1
(tg8
I00
S'\xa6\xd2:\xdf\xa3|\xc2?'
tbsg51
g4
(g5
(I0
tS'b'
tRp649
(I1
(tg8
I00
S'B\xec\x06\x8a\xbf\x95\xb4?'
tbsg54
g4
(g5
(I0
tS'b'
tRp650
(I1
(tg8
I00
S'\xf5\xc4\xd1\x94\x07\xe0\x0f@'
tbsg57
g4
(g5
(I0
tS'b'
tRp651
(I1
(tg8
I00
S'\x19S\x12r\xa0%\xb0?'
tbsg60
g4
(g5
(I0
tS'b'
tRp652
(I1
(tg8
I00
S'\xf2.\xe10V\x00\xd2?'
tbsg438
g4
(g5
(I0
tS'b'
tRp653
(I1
(tg8
I00
S'\x81\xf5\x94\xc9\xd7!\x11@'
tbsg441
g4
(g5
(I0
tS'b'
tRp654
(I1
(tg8
I00
S'[Tm\x1d\xd58\x0b@'
tbsg69
g4
(g5
(I0
tS'b'
tRp655
(I1
(tg8
I00
S'\xfa\xe1-Slc\x17@'
tbsg72
g4
(g5
(I0
tS'b'
tRp656
(I1
(tg8
I00
S'p\x90ios\xbc\x14@'
tbsg75
g4
(g5
(I0
tS'b'
tRp657
(I1
(tg8
I00
S'\xcf\xc9\xaa\xa0\x8f\xc6\x11@'
tbsg78
g4
(g5
(I0
tS'b'
tRp658
(I1
(tg8
I00
S'\to|a\xfcC\x13@'
tbsg81
g4
(g5
(I0
tS'b'
tRp659
(I1
(tg8
I00
S'r\x9e\x1e\x9c9\xd2\x10@'
tbsg84
g4
(g5
(I0
tS'b'
tRp660
(I1
(tg8
I00
S'\x84\x8ad\xa4\xc1\xb6\n@'
tbsg87
g4
(g5
(I0
tS'b'
tRp661
(I1
(tg8
I00
S'\xb2\xf2\x04\x9a\x9d\xb5\n@'
tbsg90
g4
(g5
(I0
tS'b'
tRp662
(I1
(tg8
I00
S'\xf6ln\xafA\xde\x06@'
tbsg93
g4
(g5
(I0
tS'b'
tRp663
(I1
(tg8
I00
S'T\xbe\xe6|\xde\x13\x04@'
tbsg96
g4
(g5
(I0
tS'b'
tRp664
(I1
(tg8
I00
S'\xa3\x9dD\x1f\nW\x06@'
tbsg99
g4
(g5
(I0
tS'b'
tRp665
(I1
(tg8
I00
S'xvg\x8c\xf92\x0b@'
tbsg102
g4
(g5
(I0
tS'b'
tRp666
(I1
(tg8
I00
S'm\xf8\xd6\xb2g\x93\x0b@'
tbsg105
g4
(g5
(I0
tS'b'
tRp667
(I1
(tg8
I00
S'\xf5n(\xa0e\x11\xc7\xbf'
tbsg108
g4
(g5
(I0
tS'b'
tRp668
(I1
(tg8
I00
S';\xcb\x00\x0bM\x95\x01@'
tbsg111
g4
(g5
(I0
tS'b'
tRp669
(I1
(tg8
I00
S'\x17)\x89\x0cL\xb1\x05@'
tbsg114
g4
(g5
(I0
tS'b'
tRp670
(I1
(tg8
I00
S'\x85\xc8O\x9e\x8c\x11\xef\xbf'
tbsg117
g4
(g5
(I0
tS'b'
tRp671
(I1
(tg8
I00
S'\x02\xd4\xa3\xc9\xce@\xda\xbf'
tbsg120
g4
(g5
(I0
tS'b'
tRp672
(I1
(tg8
I00
S'V\x98\x00\x97G\xe5\xbf?'
tbsg123
g4
(g5
(I0
tS'b'
tRp673
(I1
(tg8
I00
S'h<%Js\xcc\xd8\xbf'
tbsg126
g4
(g5
(I0
tS'b'
tRp674
(I1
(tg8
I00
S'"\x1f\xa0\x98\xc0W\xe5\xbf'
tbsg129
g4
(g5
(I0
tS'b'
tRp675
(I1
(tg8
I00
S'gp(\xc0\x98\xe6\x05@'
tbsg600
g4
(g5
(I0
tS'b'
tRp676
(I1
(tg8
I00
S'\x99\xff"\xb7\xf4w\xe1\xbf'
tbsg135
g4
(g5
(I0
tS'b'
tRp677
(I1
(tg8
I00
S'(z{Y\xf6\xef\x08@'
tbsg138
g4
(g5
(I0
tS'b'
tRp678
(I1
(tg8
I00
S'\xc1\xc6\x19\x9a\xa9X\x02@'
tbsg141
g4
(g5
(I0
tS'b'
tRp679
(I1
(tg8
I00
S'\xa0A;\x87\x0b\x8b\x07@'
tbsg144
g4
(g5
(I0
tS'b'
tRp680
(I1
(tg8
I00
S'\x18\xc7n\xa4] \x08@'
tbsg147
g4
(g5
(I0
tS'b'
tRp681
(I1
(tg8
I00
S'\x17\xd9\xa4e\xce\x8a\x0b@'
tbsg150
g4
(g5
(I0
tS'b'
tRp682
(I1
(tg8
I00
S'T\xe6\xad\xa9(\x1c\n@'
tbsg153
g4
(g5
(I0
tS'b'
tRp683
(I1
(tg8
I00
S'\xb6b\xf1\xeb\xf2\x91\x05@'
tbsg156
g4
(g5
(I0
tS'b'
tRp684
(I1
(tg8
I00
S'\xf1\xdd\xe0!\x7f\xd9\xc8?'
tbsg159
g4
(g5
(I0
tS'b'
tRp685
(I1
(tg8
I00
S'=\xb0\xfcv\xe2Kc?'
tbsg162
g4
(g5
(I0
tS'b'
tRp686
(I1
(tg8
I00
S'\xb6L\xeb\xf6\x14\x0e\xcf?'
tbsS't(1)'
p687
g4
(g5
(I0
tS'b'
tRp688
(I1
(tg8
I00
S'\xe4\xeey\xc8\xbe\x16\xc6?'
tbsg168
g4
(g5
(I0
tS'b'
tRp689
(I1
(tg8
I00
S'\xd3\xae\xc8\xda\x0co\xcc?'
tbsg171
g4
(g5
(I0
tS'b'
tRp690
(I1
(tg8
I00
S'\x7f\xa6p$\xacy\xce?'
tbsg174
g4
(g5
(I0
tS'b'
tRp691
(I1
(tg8
I00
S'\xd1\x03\xa8\x1f\xdc}\xc7?'
tbsg177
g4
(g5
(I0
tS'b'
tRp692
(I1
(tg8
I00
S'N7\x95\xd6I\x82\x06@'
tbsg504
g4
(g5
(I0
tS'b'
tRp693
(I1
(tg8
I00
S'@\xb3\x0c\xff\x05\x03\xbe\xbf'
tbsg189
g4
(g5
(I0
tS'b'
tRp694
(I1
(tg8
I00
S'2\r\xf7\xb17\xe9\xea\xbf'
tbsg198
g4
(g5
(I0
tS'b'
tRp695
(I1
(tg8
I00
S'R\xcf\x17\xd6\xf3\x0e\x11@'
tbsg519
g4
(g5
(I0
tS'b'
tRp696
(I1
(tg8
I00
S'.\x17DC\xf4p\t@'
tbsg204
g4
(g5
(I0
tS'b'
tRp697
(I1
(tg8
I00
S'\xdag_w\xda\x91\x11@'
tbsg207
g4
(g5
(I0
tS'b'
tRp698
(I1
(tg8
I00
S'\x02l\xd3\x99\xd78\xc3\xbf'
tbsg210
g4
(g5
(I0
tS'b'
tRp699
(I1
(tg8
I00
S'\xfa\x18\x9d\x8f\xdeZ\xe2\xbf'
tbsg213
g4
(g5
(I0
tS'b'
tRp700
(I1
(tg8
I00
S'X\xc8\xd5\xa2\x95k\xc0\xbf'
tbsg216
g4
(g5
(I0
tS'b'
tRp701
(I1
(tg8
I00
S'\x0e\xae\xd6\xb2\x082\xe0\xbf'
tbsg219
g4
(g5
(I0
tS'b'
tRp702
(I1
(tg8
I00
S' \xbe%^\x82\xd0\xef\xbf'
tbsg222
g4
(g5
(I0
tS'b'
tRp703
(I1
(tg8
I00
S'q\xb1i\xd4\x90)\xcc\xbf'
tbsg225
g4
(g5
(I0
tS'b'
tRp704
(I1
(tg8
I00
S'pq @\xaf4\x0f@'
tbsg228
g4
(g5
(I0
tS'b'
tRp705
(I1
(tg8
I00
S'\xe4\x99w\x05\n\xc8\xe1\xbf'
tbsg234
g4
(g5
(I0
tS'b'
tRp706
(I1
(tg8
I00
S'\xc7[2b\xca\xf5\x0e@'
tbsg237
g4
(g5
(I0
tS'b'
tRp707
(I1
(tg8
I00
S'\xc7l\xf3\xef\x95\x07\x07@'
tbsg240
g4
(g5
(I0
tS'b'
tRp708
(I1
(tg8
I00
S'\x8ab_\xd9\x7f;\x0c@'
tbsg243
g4
(g5
(I0
tS'b'
tRp709
(I1
(tg8
I00
S'\x9e\x87\x84F\\\x96\x0b@'
tbsg246
g4
(g5
(I0
tS'b'
tRp710
(I1
(tg8
I00
S'\xed\xdc\x82\xac\xd0\x94\t@'
tbsg249
g4
(g5
(I0
tS'b'
tRp711
(I1
(tg8
I00
S'\xc8\x97\n\x0bw\xc0\x07@'
tbsg252
g4
(g5
(I0
tS'b'
tRp712
(I1
(tg8
I00
S'\xc6\x8d\x85\xcc\x90\xae\x06@'
tbsg258
g4
(g5
(I0
tS'b'
tRp713
(I1
(tg8
I00
S'\x98~\xf0\x9e6e\xc7?'
tbsg261
g4
(g5
(I0
tS'b'
tRp714
(I1
(tg8
I00
S'F\x88\x15\x8c-US?'
tbsg264
g4
(g5
(I0
tS'b'
tRp715
(I1
(tg8
I00
S'\xd4\xfc\x13\xfb\xde\xe2\xa3?'
tbsS't_subj(2).310'
p716
g4
(g5
(I0
tS'b'
tRp717
(I1
(tg8
I00
S'T\x17p\x92\r\x87Z?'
tbsg270
g4
(g5
(I0
tS'b'
tRp718
(I1
(tg8
I00
S'pbk\xba\x87l\xc8?'
tbsg273
g4
(g5
(I0
tS'b'
tRp719
(I1
(tg8
I00
S'\xc8\xa9\xafIV]\xce?'
tbsg279
g4
(g5
(I0
tS'b'
tRp720
(I1
(tg8
I00
S'\xc7\x87rq\x8c\xe5\xb5?'
tbsg282
g4
(g5
(I0
tS'b'
tRp721
(I1
(tg8
I00
S',BC\xc0\xa51\x07@'
tbsg285
g4
(g5
(I0
tS'b'
tRp722
(I1
(tg8
I00
S'PtI\x98\x10\xda\x08@'
tbsg288
g4
(g5
(I0
tS'b'
tRp723
(I1
(tg8
I00
S'$f\x04\x14\xcd\x11\x04@'
tbsg291
g4
(g5
(I0
tS'b'
tRp724
(I1
(tg8
I00
S'\xe6W\xc5#>\xf6\x04@'
tbsg294
g4
(g5
(I0
tS'b'
tRp725
(I1
(tg8
I00
S'\x1c\x08\xa8\xb2<\xf7\x00@'
tbsg297
g4
(g5
(I0
tS'b'
tRp726
(I1
(tg8
I00
S'bZ\xeb\xe7 \x02\x04@'
tbsg300
g4
(g5
(I0
tS'b'
tRp727
(I1
(tg8
I00
S'F=V\xe5\xf6\x16\x06@'
tbsg303
g4
(g5
(I0
tS'b'
tRp728
(I1
(tg8
I00
S'\xd5\xe9\x9b\xc4l\x0e\x14@'
tbsg306
g4
(g5
(I0
tS'b'
tRp729
(I1
(tg8
I00
S'\x89G\xd1\x05^\xc4\x0e@'
tbsg309
g4
(g5
(I0
tS'b'
tRp730
(I1
(tg8
I00
S'\x19I\x9f\xbf\x95\n\x15@'
tbsg312
g4
(g5
(I0
tS'b'
tRp731
(I1
(tg8
I00
S'\x00A\x1a\xfbW6\x0b@'
tbsg315
g4
(g5
(I0
tS'b'
tRp732
(I1
(tg8
I00
S'2\xfc|\xb8~\xad\x0f@'
tbsg318
g4
(g5
(I0
tS'b'
tRp733
(I1
(tg8
I00
S'\n\xbb\xbe\xdb\x87\xc4\n@'
tbsg321
g4
(g5
(I0
tS'b'
tRp734
(I1
(tg8
I00
S'WajN&\x7f\x11@'
tbsS'v_subj(2.1).305'
p735
g4
(g5
(I0
tS'b'
tRp736
(I1
(tg8
I00
S'F\x81b\xf7\\\xf5\x12@'
tbsg351
g4
(g5
(I0
tS'b'
tRp737
(I1
(tg8
I00
S'\xaa>-\xb8\x9b \xeb\xbf'
tbsg354
g4
(g5
(I0
tS'b'
tRp738
(I1
(tg8
I00
S'\xa4\xcf\x85\x9bv\x9a\x0e@'
tbsg357
g4
(g5
(I0
tS'b'
tRp739
(I1
(tg8
I00
S'>\xd72n\xf7a\x06@'
tbsg360
g4
(g5
(I0
tS'b'
tRp740
(I1
(tg8
I00
S'\x18\xb2\xacI\x03\xb8\r@'
tbsg363
g4
(g5
(I0
tS'b'
tRp741
(I1
(tg8
I00
S'\xa8TY\xff/\x84\r@'
tbsg366
g4
(g5
(I0
tS'b'
tRp742
(I1
(tg8
I00
S'q5e\xe9\xc2\xa4\x11@'
tbsg369
g4
(g5
(I0
tS'b'
tRp743
(I1
(tg8
I00
S'\x1e]\xd6R\xa7\xd5\xd9\xbf'
tbsg372
g4
(g5
(I0
tS'b'
tRp744
(I1
(tg8
I00
S'C.\xe3\x1c\xd7\x19\xe5\xbf'
tbsg375
g4
(g5
(I0
tS'b'
tRp745
(I1
(tg8
I00
S'\t)\x191\x8dj\xeb\xbf'
tbsg378
g4
(g5
(I0
tS'b'
tRp746
(I1
(tg8
I00
S'\x9a\xd8\xcb\x88P\xd2\xf1\xbf'
tbsg381
g4
(g5
(I0
tS'b'
tRp747
(I1
(tg8
I00
S'\xa4/\x95\x02\xf3\xc9\xe9\xbf'
tbsg384
g4
(g5
(I0
tS'b'
tRp748
(I1
(tg8
I00
S'\x87\xc0\x1e\x1a\x7f\xfb\xe9\xbf'
tbsg387
g4
(g5
(I0
tS'b'
tRp749
(I1
(tg8
I00
S']\xc6\xcci\xef\xf5\xe5\xbf'
tbsg390
g4
(g5
(I0
tS'b'
tRp750
(I1
(tg8
I00
S'A\xdbp\x8e\x8f\xca\x0c@'
tbsg396
g4
(g5
(I0
tS'b'
tRp751
(I1
(tg8
I00
S'\xe7a\x87\xc0{U\x06@'
tbsg399
g4
(g5
(I0
tS'b'
tRp752
(I1
(tg8
I00
S',\xa712\xae\xf5\x07@'
tbsg402
g4
(g5
(I0
tS'b'
tRp753
(I1
(tg8
I00
S'P\xe2=\xae\xc1o\xfc?'
tbsg405
g4
(g5
(I0
tS'b'
tRp754
(I1
(tg8
I00
S'\xc8\xf3\x18\tVe\x04@'
tbsg408
g4
(g5
(I0
tS'b'
tRp755
(I1
(tg8
I00
S'VH\xa4\xb1 \xfd\x00@'
tbsg411
g4
(g5
(I0
tS'b'
tRp756
(I1
(tg8
I00
S'\xd3\x9d\xa6\x1e\x9e\xec\x0b@'
tbsg414
g4
(g5
(I0
tS'b'
tRp757
(I1
(tg8
I00
S'\xda\x01\xdc\xf6\x82\xcb\x03@'
tbsg63
g4
(g5
(I0
tS'b'
tRp758
(I1
(tg8
I00
S'=\xa9\xf9\xca\x88\x80\xc0?'
tbsg66
g4
(g5
(I0
tS'b'
tRp759
(I1
(tg8
I00
S'\x89\xba\xfb\xde\x99\x81\xce?'
tbsg444
g4
(g5
(I0
tS'b'
tRp760
(I1
(tg8
I00
S'5\xb8\x96t\xb9\xbb\xe0?'
tbsg447
g4
(g5
(I0
tS'b'
tRp761
(I1
(tg8
I00
S'<=\xb99\xb2&\xb3?'
tbsS't_subj(3).310'
p762
g4
(g5
(I0
tS'b'
tRp763
(I1
(tg8
I00
S'\xba\xb8\xb1\xd4=+n?'
tbsg453
g4
(g5
(I0
tS'b'
tRp764
(I1
(tg8
I00
S'\x13\x08\xbf\xcf\x1d\xc4\xa1?'
tbsg456
g4
(g5
(I0
tS'b'
tRp765
(I1
(tg8
I00
S'\xf5\xc3Y\x07\x8d\xfe\x10@'
tbsg459
g4
(g5
(I0
tS'b'
tRp766
(I1
(tg8
I00
S'\xa4\xe5\x0b\x11\xfe{\xcd?'
tbsg462
g4
(g5
(I0
tS'b'
tRp767
(I1
(tg8
I00
S'\xd6\x84\x1a\x10\xd4\xb0\xd2?'
tbsg465
g4
(g5
(I0
tS'b'
tRp768
(I1
(tg8
I00
S'\x12N\xce\xc5+\xb8\x84?'
tbsg468
g4
(g5
(I0
tS'b'
tRp769
(I1
(tg8
I00
S'\xeeQ\xb2X\xd9\x00\x12@'
tbsg471
g4
(g5
(I0
tS'b'
tRp770
(I1
(tg8
I00
S'\x85\x0eJ\xa3{\x1f\x15@'
tbsg474
g4
(g5
(I0
tS'b'
tRp771
(I1
(tg8
I00
S'\x8dViY\x86\xd7\x06@'
tbsg477
g4
(g5
(I0
tS'b'
tRp772
(I1
(tg8
I00
S'0,\x9c)\x90\x05\xf6?'
tbsg480
g4
(g5
(I0
tS'b'
tRp773
(I1
(tg8
I00
S'hF\x8c\xd1\xf4G\t@'
tbsg483
g4
(g5
(I0
tS'b'
tRp774
(I1
(tg8
I00
S'\xf8\xe4\x8fFu\xb1\r@'
tbsg486
g4
(g5
(I0
tS'b'
tRp775
(I1
(tg8
I00
S'@+\xadm\x93_\x10@'
tbsg489
g4
(g5
(I0
tS'b'
tRp776
(I1
(tg8
I00
S'\x9e\xebP\x01\x1a\xeb\x0c@'
tbsg492
g4
(g5
(I0
tS'b'
tRp777
(I1
(tg8
I00
S'\x1a\xd9_\xc6%\x0e\xfe?'
tbsg495
g4
(g5
(I0
tS'b'
tRp778
(I1
(tg8
I00
S'\xaa\xa1\xcc\x13\xc4\x10\t@'
tbsg498
g4
(g5
(I0
tS'b'
tRp779
(I1
(tg8
I00
S'\x81\xff\xf2\xd6\xf9v\xe3\xbf'
tbsg501
g4
(g5
(I0
tS'b'
tRp780
(I1
(tg8
I00
S'\xbaT\x1f\xbfd2\xd2\xbf'
tbsg180
g4
(g5
(I0
tS'b'
tRp781
(I1
(tg8
I00
S'\xb4\xba\x1eb\xac\xbd\x02@'
tbsg507
g4
(g5
(I0
tS'b'
tRp782
(I1
(tg8
I00
S'\xa2\x1f\x17G\x1dO\x04@'
tbsg510
g4
(g5
(I0
tS'b'
tRp783
(I1
(tg8
I00
S'\x88\x1c@:\xa5\xa3\x11@'
tbsg513
g4
(g5
(I0
tS'b'
tRp784
(I1
(tg8
I00
S'U7E\x95\x03\xf1\xeb\xbf'
tbsg516
g4
(g5
(I0
tS'b'
tRp785
(I1
(tg8
I00
S'%\x17\xccF\xfe\x93\xe0\xbf'
tbsg201
g4
(g5
(I0
tS'b'
tRp786
(I1
(tg8
I00
S'p\xce\xd6\xc8\xad\xe8\xe2\xbf'
tbsg522
g4
(g5
(I0
tS'b'
tRp787
(I1
(tg8
I00
S'%\x1f@\x12\xf7\x9c\x02@'
tbsg525
g4
(g5
(I0
tS'b'
tRp788
(I1
(tg8
I00
S"\x99\xa5\x86\xf1\xbe'\x03@"
tbsg528
g4
(g5
(I0
tS'b'
tRp789
(I1
(tg8
I00
S'xn\xbe\xae\x05\xc8\x06@'
tbsg531
g4
(g5
(I0
tS'b'
tRp790
(I1
(tg8
I00
S'o9*\xb2^\xb5\x03@'
tbsg534
g4
(g5
(I0
tS'b'
tRp791
(I1
(tg8
I00
S'=U\x03\x9d\xd6e\n@'
tbsg537
g4
(g5
(I0
tS'b'
tRp792
(I1
(tg8
I00
S'\xf0\x98~,\x14n{?'
tbsg540
g4
(g5
(I0
tS'b'
tRp793
(I1
(tg8
I00
S'92\xc0\xe7\x81\xa1\x88?'
tbsg543
g4
(g5
(I0
tS'b'
tRp794
(I1
(tg8
I00
S'\xcd\xf3bU*\xed\xd0?'
tbsg546
g4
(g5
(I0
tS'b'
tRp795
(I1
(tg8
I00
S'\x1e\xf7\xbdr6\x07\x7f?'
tbsg549
g4
(g5
(I0
tS'b'
tRp796
(I1
(tg8
I00
S'\x81\x88-\xa2\x87\x9b\x88?'
tbsg570
g4
(g5
(I0
tS'b'
tRp797
(I1
(tg8
I00
S'\x8a\x0e\t\xb5\x9cQ\t@'
tbsg573
g4
(g5
(I0
tS'b'
tRp798
(I1
(tg8
I00
S'Z\xa9J\x95\xa7*\x0f@'
tbsg576
g4
(g5
(I0
tS'b'
tRp799
(I1
(tg8
I00
S'\x18M0\xc1Q\x98\r@'
tbsg579
g4
(g5
(I0
tS'b'
tRp800
(I1
(tg8
I00
S"\xe4gm't3\x10@"
tbsg582
g4
(g5
(I0
tS'b'
tRp801
(I1
(tg8
I00
S'L\xcd\xb0\xd6\x8e\xe6\x0b@'
tbsg585
g4
(g5
(I0
tS'b'
tRp802
(I1
(tg8
I00
S'\xdfLP\x90"\\\x07@'
tbsg588
g4
(g5
(I0
tS'b'
tRp803
(I1
(tg8
I00
S'\xb7\x01zu\x8bw\x07@'
tbsg591
g4
(g5
(I0
tS'b'
tRp804
(I1
(tg8
I00
S'\x91\x16\xa0l\x8c\xb8\x08@'
tbsg594
g4
(g5
(I0
tS'b'
tRp805
(I1
(tg8
I00
S'\xdf!\x10q7\x0c\xd9\xbf'
tbsg597
g4
(g5
(I0
tS'b'
tRp806
(I1
(tg8
I00
S'\xe3\xc8\xcdm\xce\xec\xde\xbf'
tbsg132
g4
(g5
(I0
tS'b'
tRp807
(I1
(tg8
I00
S'\x85\xe7\x13\xcd\xce\xe5\x0c@'
tbsg603
g4
(g5
(I0
tS'b'
tRp808
(I1
(tg8
I00
S'\xb6\x95\x80G\xf1\xab\xc9\xbf'
tbsg606
g4
(g5
(I0
tS'b'
tRp809
(I1
(tg8
I00
S'\x7f2\x17\x13\xf8\xb8\xe1\xbf'
tbsS'v_subj(3.0).332'
p810
g4
(g5
(I0
tS'b'
tRp811
(I1
(tg8
I00
S'\xe1aA\x1b\xe3b\x05@'
tbsg624
g4
(g5
(I0
tS'b'
tRp812
(I1
(tg8
I00
S'\xac\xa4\x97\xe74\xc1\xff?'
tbsg627
g4
(g5
(I0
tS'b'
tRp813
(I1
(tg8
I00
S'\x94#\x8dCY\xb8\x07@'
tbsS'v_subj(1.0).336'
p814
g4
(g5
(I0
tS'b'
tRp815
(I1
(tg8
I00
S'A\xcaiUE\x97\r@'
tbsS'v_subj(1.0).338'
p816
g4
(g5
(I0
tS'b'
tRp817
(I1
(tg8
I00
S'\xa2\x8b6\xb5_\x98\x05@'
tbsS't_subj(2).307'
p818
g4
(g5
(I0
tS'b'
tRp819
(I1
(tg8
I00
S'\xc6\n\xd0m\xb4S\xce?'
tbsS't_subj(2).304'
p820
g4
(g5
(I0
tS'b'
tRp821
(I1
(tg8
I00
S'>\x15\xdbaE\x9f\xd3?'
tbsS't_subj(2).305'
p822
g4
(g5
(I0
tS'b'
tRp823
(I1
(tg8
I00
S'[F|\xc1\xa0\xbc\xc9?'
tbsS't_subj(2).302'
p824
g4
(g5
(I0
tS'b'
tRp825
(I1
(tg8
I00
S'4\xbc\x9b\x19]\x0c\x94?'
tbsS't_subj(2).303'
p826
g4
(g5
(I0
tS'b'
tRp827
(I1
(tg8
I00
S'\xe9\xce\r\x13\x04\xb5\x9d?'
tbsS't_subj(2).308'
p828
g4
(g5
(I0
tS'b'
tRp829
(I1
(tg8
I00
S'\x1c\x16\xdb\x1d\xa6?e?'
tbsS't_subj(2).309'
p830
g4
(g5
(I0
tS'b'
tRp831
(I1
(tg8
I00
S'a(=D\xa5*\xb8?'
tbsS'v_subj(2.1).336'
p832
g4
(g5
(I0
tS'b'
tRp833
(I1
(tg8
I00
S'\xa0\x9b\xe6\xceD\xab\x08@'
tbsS'v_subj(2.1).334'
p834
g4
(g5
(I0
tS'b'
tRp835
(I1
(tg8
I00
S'\x9c\xea\xfa\x92\xa4m\x04@'
tbsS'v_subj(2.1).332'
p836
g4
(g5
(I0
tS'b'
tRp837
(I1
(tg8
I00
S'\xc4\xd0Y\x85\x9c\xb0\x12@'
tbsS'v_subj(2.1).338'
p838
g4
(g5
(I0
tS'b'
tRp839
(I1
(tg8
I00
S'<\xf9\xbcx\xe0\xdb\t@'
tbsS'v_subj(1.1).338'
p840
g4
(g5
(I0
tS'b'
tRp841
(I1
(tg8
I00
S'\x92\r\x06b\x07\xc4\x0b@'
tbsS'v_subj(1.1).336'
p842
g4
(g5
(I0
tS'b'
tRp843
(I1
(tg8
I00
S'\xa2c\x8d\r\x16F\x0c@'
tbsS'v_subj(1.1).334'
p844
g4
(g5
(I0
tS'b'
tRp845
(I1
(tg8
I00
S'%z\xa3t\xaa\xd0\x11@'
tbsS'v_subj(1.1).332'
p846
g4
(g5
(I0
tS'b'
tRp847
(I1
(tg8
I00
S'L[X\x93\xb2V\x15@'
tbsg165
g4
(g5
(I0
tS'b'
tRp848
(I1
(tg8
I00
S'\xe0\xa9\x9cn\xfe\xd6\xd0?'
tbsS'v_std'
p849
g4
(g5
(I0
tS'b'
tRp850
(I1
(tg8
I00
S'\xa2<A\xa2m\xe1\xe4?'
tbsS'z_subj_trans(1).308'
p851
g4
(g5
(I0
tS'b'
tRp852
(I1
(tg8
I00
S'(\xc0\x06E\xd1\xff\xe9\xbf'
tbsS'z_subj_trans(1).309'
p853
g4
(g5
(I0
tS'b'
tRp854
(I1
(tg8
I00
S'-\x1b\x81\x8f\xe1\x82\xea\xbf'
tbsS'z_subj_trans(1).307'
p855
g4
(g5
(I0
tS'b'
tRp856
(I1
(tg8
I00
S'\xac\xec\x91w&x\xca\xbf'
tbsS'z_subj_trans(1).304'
p857
g4
(g5
(I0
tS'b'
tRp858
(I1
(tg8
I00
S'Bi\xa7\x0fR\xa1\xd1\xbf'
tbsS'z_subj_trans(1).305'
p859
g4
(g5
(I0
tS'b'
tRp860
(I1
(tg8
I00
S'\xe8\xe8\x12\xdb\xeaR\xed\xbf'
tbsS'z_subj_trans(1).302'
p861
g4
(g5
(I0
tS'b'
tRp862
(I1
(tg8
I00
S'd\x04:R\x937\xf2\xbf'
tbsS'z_subj_trans(1).303'
p863
g4
(g5
(I0
tS'b'
tRp864
(I1
(tg8
I00
S'\xc0\x91\xd8\x8a\xf4Q\xe2\xbf'
tbsS'a_subj(3).332'
p865
g4
(g5
(I0
tS'b'
tRp866
(I1
(tg8
I00
S'I\x18k\xa6B\xf0\x07@'
tbsS'a_subj(3).334'
p867
g4
(g5
(I0
tS'b'
tRp868
(I1
(tg8
I00
S'\xf2\x1f\xa7\x93`\x84\n@'
tbsS'a_subj(2).319'
p869
g4
(g5
(I0
tS'b'
tRp870
(I1
(tg8
I00
S'4\xe0\x89\xde\x88r\r@'
tbsg231
g4
(g5
(I0
tS'b'
tRp871
(I1
(tg8
I00
S'\x1a\xa7\x9d\x10M\xdd\t@'
tbsS'a_subj(2).317'
p872
g4
(g5
(I0
tS'b'
tRp873
(I1
(tg8
I00
S'q1@%m~\x06@'
tbsS'a_subj(2).310'
p874
g4
(g5
(I0
tS'b'
tRp875
(I1
(tg8
I00
S'\xa4\\K\xcbR\x99\x03@'
tbsg255
g4
(g5
(I0
tS'b'
tRp876
(I1
(tg8
I00
S'\x93\xa1\xa6\xd3r%\x0e@'
tbsg267
g4
(g5
(I0
tS'b'
tRp877
(I1
(tg8
I00
S'\x1eW\xbe<T$\x0f@'
tbsS'a_subj(2).313'
p878
g4
(g5
(I0
tS'b'
tRp879
(I1
(tg8
I00
S'\xb1\xea\xcc\xd8\xdc\xb0\t@'
tbsS'v_subj(1.1).329'
p880
g4
(g5
(I0
tS'b'
tRp881
(I1
(tg8
I00
S'\xb4\xbb\xce3#\xe5\x13@'
tbsS'a_subj(1).338'
p882
g4
(g5
(I0
tS'b'
tRp883
(I1
(tg8
I00
S'q\x8fK\xc5\xa30\t@'
tbsS'a_subj(1).336'
p884
g4
(g5
(I0
tS'b'
tRp885
(I1
(tg8
I00
S'\xba9E\x95\x0b\xb7\x0c@'
tbsS'a_subj(1).334'
p886
g4
(g5
(I0
tS'b'
tRp887
(I1
(tg8
I00
S'\xe5\xad\x8a\xbd\x1b\x93\x0c@'
tbsS'a_subj(1).332'
p888
g4
(g5
(I0
tS'b'
tRp889
(I1
(tg8
I00
S'{\xb4\x00Gv\xa0\x02@'
tbsS'v(2.0)'
p890
g4
(g5
(I0
tS'b'
tRp891
(I1
(tg8
I00
S'\xa5\x16O\x10\xef\xb3\x07@'
tbsS't_subj(3).329'
p892
g4
(g5
(I0
tS'b'
tRp893
(I1
(tg8
I00
S'N;dbI\xf7\xb9?'
tbsS't_subj(3).325'
p894
g4
(g5
(I0
tS'b'
tRp895
(I1
(tg8
I00
S'l\x81>\xbc\xda\x1c~?'
tbsS't_subj(3).324'
p896
g4
(g5
(I0
tS'b'
tRp897
(I1
(tg8
I00
S'\x88\xf4)\xbdS\x99\xae?'
tbsS't_subj(3).323'
p898
g4
(g5
(I0
tS'b'
tRp899
(I1
(tg8
I00
S'\xb1\x1e\xb2\x14\xde\xd2\xc8?'
tbsS't_subj(3).322'
p900
g4
(g5
(I0
tS'b'
tRp901
(I1
(tg8
I00
S'\xac\xea\xf4\x9d\x8bZ\xc9?'
tbsS't_subj(3).320'
p902
g4
(g5
(I0
tS'b'
tRp903
(I1
(tg8
I00
S'NJ\x00jj\xa2\xc1?'
tbsS'v_subj(2.0).338'
p904
g4
(g5
(I0
tS'b'
tRp905
(I1
(tg8
I00
S"oB'q!\x9c\x08@"
tbsS'v_subj(2.0).334'
p906
g4
(g5
(I0
tS'b'
tRp907
(I1
(tg8
I00
S'D\xc7t\xb8\x1a\xd0\xfe?'
tbsS'v_subj(2.0).336'
p908
g4
(g5
(I0
tS'b'
tRp909
(I1
(tg8
I00
S'LN\x19!xQ\x04@'
tbsS'v_subj(2.0).332'
p910
g4
(g5
(I0
tS'b'
tRp911
(I1
(tg8
I00
S'\xf2\xca\x9dS\xc0\xfb\x11@'
tbsS'v_subj(3.0).325'
p912
g4
(g5
(I0
tS'b'
tRp913
(I1
(tg8
I00
S'\xb2\xf8\x1f\xd1\xff\xb8\x01@'
tbsS'a_subj(2).324'
p914
g4
(g5
(I0
tS'b'
tRp915
(I1
(tg8
I00
S'H\x1c\xfcM\xa3\xfd\x0b@'
tbsS'a_subj(2).320'
p916
g4
(g5
(I0
tS'b'
tRp917
(I1
(tg8
I00
S'\x0f\xcdi\xa0\xeb\xaf\x04@'
tbsS'a_subj(2).323'
p918
g4
(g5
(I0
tS'b'
tRp919
(I1
(tg8
I00
S'I\xef\x10\xb9\x8d\xa6\x06@'
tbsS'a_subj(2).322'
p920
g4
(g5
(I0
tS'b'
tRp921
(I1
(tg8
I00
S'\xc6\xb3\xd4\xc0]q\t@'
tbsS'v_subj(3.0).329'
p922
g4
(g5
(I0
tS'b'
tRp923
(I1
(tg8
I00
S'\xaa\x11h\xd5\x1f\xe2\x0b@'
tbsS'a_subj(2).328'
p924
g4
(g5
(I0
tS'b'
tRp925
(I1
(tg8
I00
S'\xbcc\xc7\x19-\xb3\x0f@'
tbsS'z_subj_trans(2).332'
p926
g4
(g5
(I0
tS'b'
tRp927
(I1
(tg8
I00
S'\xe9{\xa4\xa86\x01\xe5\xbf'
tbsS'z_subj_trans(2).336'
p928
g4
(g5
(I0
tS'b'
tRp929
(I1
(tg8
I00
S'klq\xe6\xa3\xf6\xe3\xbf'
tbsS'z_subj_trans(2).334'
p930
g4
(g5
(I0
tS'b'
tRp931
(I1
(tg8
I00
S'>\xae\\\xa3;L\xea\xbf'
tbsS'v_subj(2.1).308'
p932
g4
(g5
(I0
tS'b'
tRp933
(I1
(tg8
I00
S'\xa9\x94\x80\xf1\xeck\x05@'
tbsS'v_subj(2.1).307'
p934
g4
(g5
(I0
tS'b'
tRp935
(I1
(tg8
I00
S"\xecu\xcd\xf5\x8c'\x16@"
tbsS'z_subj_trans(2).338'
p936
g4
(g5
(I0
tS'b'
tRp937
(I1
(tg8
I00
S'\x14z\xe3\xb5W\xeb\xb2\xbf'
tbsS'v_subj(2.1).304'
p938
g4
(g5
(I0
tS'b'
tRp939
(I1
(tg8
I00
S'_\x8fM\xa3\x84\x99\x12@'
tbsS'v_subj(2.1).303'
p940
g4
(g5
(I0
tS'b'
tRp941
(I1
(tg8
I00
S'c\xb9\xe9\xe1\x7f?\x0c@'
tbsS'v_subj(2.1).302'
p942
g4
(g5
(I0
tS'b'
tRp943
(I1
(tg8
I00
S'\xaco\x93$A\xd4\x11@'
tbsS't(3)'
p944
g4
(g5
(I0
tS'b'
tRp945
(I1
(tg8
I00
S"\xf0'nT\\L\xb3?"
tbsS't_subj(1).305'
p946
g4
(g5
(I0
tS'b'
tRp947
(I1
(tg8
I00
S'\x12\x02f%\x14+\xd0?'
tbsS't_subj(1).304'
p948
g4
(g5
(I0
tS'b'
tRp949
(I1
(tg8
I00
S'~\xd2\x18\x8a\xe7\xf7\xd2?'
tbsS't_subj(1).303'
p950
g4
(g5
(I0
tS'b'
tRp951
(I1
(tg8
I00
S'\xb0~s\r\xc6Jm?'
tbsS't_subj(1).302'
p952
g4
(g5
(I0
tS'b'
tRp953
(I1
(tg8
I00
S'&\x1d\x0ej\xf5\xc0\xbc?'
tbsS't_subj(1).309'
p954
g4
(g5
(I0
tS'b'
tRp955
(I1
(tg8
I00
S'3\xc1!\xa2#W\xc6?'
tbsS't_subj(1).308'
p956
g4
(g5
(I0
tS'b'
tRp957
(I1
(tg8
I00
S'\xbc\xb2|a\x19\xc3\x8b?'
tbsS'z_subj_trans(1).336'
p958
g4
(g5
(I0
tS'b'
tRp959
(I1
(tg8
I00
S'\x13\x8a\x80\xff\xdc?\xe2\xbf'
tbsS'z_subj_trans(1).334'
p960
g4
(g5
(I0
tS'b'
tRp961
(I1
(tg8
I00
S'\x80\xc1\xd9\xd1\xaa\xa8\xd8\xbf'
tbsS'v_subj(3.1).308'
p962
g4
(g5
(I0
tS'b'
tRp963
(I1
(tg8
I00
S'\x91\x97.~\xfc\x97\x08@'
tbsS'v_subj(3.1).309'
p964
g4
(g5
(I0
tS'b'
tRp965
(I1
(tg8
I00
S'\x069\xc0\xe4G\x8e\x10@'
tbsS'v_subj(3.1).304'
p966
g4
(g5
(I0
tS'b'
tRp967
(I1
(tg8
I00
S'|\x91\x19l\x9b\x95\x12@'
tbsS'v_subj(3.1).305'
p968
g4
(g5
(I0
tS'b'
tRp969
(I1
(tg8
I00
S'i\xd2\x00A3\x07\x0f@'
tbsS'z_std'
p970
g4
(g5
(I0
tS'b'
tRp971
(I1
(tg8
I00
S'\xda\xe7\xb4\x02\r\x1b\xd6?'
tbsS'z_subj_trans(1).338'
p972
g4
(g5
(I0
tS'b'
tRp973
(I1
(tg8
I00
S'}S0\x1b\x99\xfc\xe1\xbf'
tbsS'z_subj_trans(3).332'
p974
g4
(g5
(I0
tS'b'
tRp975
(I1
(tg8
I00
S'^\xb8\x1f\x1cL\xdd\xe8\xbf'
tbsS'z_subj_trans(3).334'
p976
g4
(g5
(I0
tS'b'
tRp977
(I1
(tg8
I00
S'")\xd3\xdb\xdb"\xe7\xbf'
tbsS'z_subj_trans(1).329'
p978
g4
(g5
(I0
tS'b'
tRp979
(I1
(tg8
I00
S'`\xfal\xcc\x15\xa1\xe4\xbf'
tbsS'z_subj_trans(2).302'
p980
g4
(g5
(I0
tS'b'
tRp981
(I1
(tg8
I00
S'\xae})\xbd\x84\x8f\xf0\xbf'
tbsS'z_trans(3)'
p982
g4
(g5
(I0
tS'b'
tRp983
(I1
(tg8
I00
S'\xf7\xb6|\x12\xf4\x95\xdd\xbf'
tbsS'v_subj(1.0).309'
p984
g4
(g5
(I0
tS'b'
tRp985
(I1
(tg8
I00
S'\nwV*\x04\xbd\x05@'
tbsS'v_subj(1.0).308'
p986
g4
(g5
(I0
tS'b'
tRp987
(I1
(tg8
I00
S'e\xc9\x1eJ\xaan\t@'
tbsS'v_subj(1.0).305'
p988
g4
(g5
(I0
tS'b'
tRp989
(I1
(tg8
I00
S'm~\rk\x11\x1a\x05@'
tbsS'v_subj(1.0).304'
p990
g4
(g5
(I0
tS'b'
tRp991
(I1
(tg8
I00
S'4\x13\t\xdf\xdah\n@'
tbsS'v_subj(1.0).307'
p992
g4
(g5
(I0
tS'b'
tRp993
(I1
(tg8
I00
S'g5\x03\xa6\r\xb9\x13@'
tbsS'v_subj(1.0).303'
p994
g4
(g5
(I0
tS'b'
tRp995
(I1
(tg8
I00
S'x\x19\xa1\xcc\x16\x01\x04@'
tbsS'v_subj(1.0).302'
p996
g4
(g5
(I0
tS'b'
tRp997
(I1
(tg8
I00
S'X]B\x83\x14\x13\n@'
tbsS't_subj(2).332'
p998
g4
(g5
(I0
tS'b'
tRp999
(I1
(tg8
I00
S'x\xb4\x05\xb6\xab6\xd2?'
tbsS't_subj(2).336'
p1000
g4
(g5
(I0
tS'b'
tRp1001
(I1
(tg8
I00
S'2c\xa8\x12m\xc7d?'
tbsS't_subj(2).334'
p1002
g4
(g5
(I0
tS'b'
tRp1003
(I1
(tg8
I00
S'<\xa7\xa7\xd9<0k?'
tbsS't_subj(2).338'
p1004
g4
(g5
(I0
tS'b'
tRp1005
(I1
(tg8
I00
S'_\x0e\x86X>\xacq?'
tbsS'a_subj(2).325'
p1006
g4
(g5
(I0
tS'b'
tRp1007
(I1
(tg8
I00
S'n&\x0b\n-I\x0c@'
tbsS'v_subj(3.0).324'
p1008
g4
(g5
(I0
tS'b'
tRp1009
(I1
(tg8
I00
S'\xb9lL4\x8e\xff\x03@'
tbsS'v_subj(3.0).320'
p1010
g4
(g5
(I0
tS'b'
tRp1011
(I1
(tg8
I00
S'b\xa3\xba\xc1*\x90\x06@'
tbsS'v_subj(1.1).328'
p1012
g4
(g5
(I0
tS'b'
tRp1013
(I1
(tg8
I00
S'\xaaL\xc8\x1c#\xba\n@'
tbsg393
g4
(g5
(I0
tS'b'
tRp1014
(I1
(tg8
I00
S'\x9f\xe7\x17\xa3\xdb\xef\x0c@'
tbsS'v_subj(1.1).324'
p1015
g4
(g5
(I0
tS'b'
tRp1016
(I1
(tg8
I00
S'\xc8W\t~S|\x11@'
tbsS'v_subj(1.1).325'
p1017
g4
(g5
(I0
tS'b'
tRp1018
(I1
(tg8
I00
S'\xc1\xd7f\xfe\x19T\x12@'
tbsS'v_subj(3.0).322'
p1019
g4
(g5
(I0
tS'b'
tRp1020
(I1
(tg8
I00
S'\xf80\xf1v\x08W\xff?'
tbsS'v_subj(1.1).320'
p1021
g4
(g5
(I0
tS'b'
tRp1022
(I1
(tg8
I00
S'\xc2T/;\xb0A\x11@'
tbsS'v_subj(1.1).322'
p1023
g4
(g5
(I0
tS'b'
tRp1024
(I1
(tg8
I00
S'\xdbR\xf0*\x02\xd3\x12@'
tbsS'v_subj(1.1).323'
p1025
g4
(g5
(I0
tS'b'
tRp1026
(I1
(tg8
I00
S'\x9a\x0b\xda\xe7\x8f\x14\x11@'
tbsS'z_subj_trans(2).309'
p1027
g4
(g5
(I0
tS'b'
tRp1028
(I1
(tg8
I00
S'\xfb!\xc4\xdb`V\xf3\xbf'
tbsS'z_subj_trans(2).308'
p1029
g4
(g5
(I0
tS'b'
tRp1030
(I1
(tg8
I00
S'\xd8s\x82\x8a{.\xd6\xbf'
tbsS'z_subj_trans(2).303'
p1031
g4
(g5
(I0
tS'b'
tRp1032
(I1
(tg8
I00
S' \x11\xba\x8f\x7f\xc2\xf0\xbf'
tbsS'a_subj(2).329'
p1033
g4
(g5
(I0
tS'b'
tRp1034
(I1
(tg8
I00
S'N\xd7\xa2\x1b\x8d\xeb\x11@'
tbsS'z_subj_trans(2).307'
p1035
g4
(g5
(I0
tS'b'
tRp1036
(I1
(tg8
I00
S'\xbb>H\xe6q\xea\xcc\xbf'
tbsS'z_subj_trans(2).305'
p1037
g4
(g5
(I0
tS'b'
tRp1038
(I1
(tg8
I00
S'\xac\xaa\x936\x1eU\xe8\xbf'
tbsS'z_subj_trans(2).304'
p1039
g4
(g5
(I0
tS'b'
tRp1040
(I1
(tg8
I00
S'\xa0\xd6\xd3?\xa0!\xe4\xbf'
tbsS'a_subj(3).322'
p1041
g4
(g5
(I0
tS'b'
tRp1042
(I1
(tg8
I00
S'\x93\x15f\xf6\xd0\x02\x07@'
tbsS'a_subj(3).323'
p1043
g4
(g5
(I0
tS'b'
tRp1044
(I1
(tg8
I00
S'\x1b%\xa3\x00\x04e\t@'
tbsS'a_subj(3).320'
p1045
g4
(g5
(I0
tS'b'
tRp1046
(I1
(tg8
I00
S'V\xe6\xd0\xea\xff\xbd\t@'
tbsS'a_subj(3).324'
p1047
g4
(g5
(I0
tS'b'
tRp1048
(I1
(tg8
I00
S']H<\x94kx\x0e@'
tbsS'a_subj(3).325'
p1049
g4
(g5
(I0
tS'b'
tRp1050
(I1
(tg8
I00
S'x\x83\xb2\x1c\x1ak\x02@'
tbsS'a_subj(3).329'
p1051
g4
(g5
(I0
tS'b'
tRp1052
(I1
(tg8
I00
S'\xf4u\xaa\xa2\xffk\t@'
tbsS'v_subj(2.1).309'
p1053
g4
(g5
(I0
tS'b'
tRp1054
(I1
(tg8
I00
S'\x93\xd2\x9d\xb6\xee\xea\x14@'
tbsS'a_subj(1).328'
p1055
g4
(g5
(I0
tS'b'
tRp1056
(I1
(tg8
I00
S'Y"\x03\xbe?\x9d\x08@'
tbsS'a_subj(1).329'
p1057
g4
(g5
(I0
tS'b'
tRp1058
(I1
(tg8
I00
S']\xf6\x93\x17B[\n@'
tbsS'a_subj(1).320'
p1059
g4
(g5
(I0
tS'b'
tRp1060
(I1
(tg8
I00
S'\xd4B\xbd\xdas\x9b\x01@'
tbsS'a_subj(1).322'
p1061
g4
(g5
(I0
tS'b'
tRp1062
(I1
(tg8
I00
S'_\xf1R\x08\x14\xf9\x06@'
tbsS'a_subj(1).323'
p1063
g4
(g5
(I0
tS'b'
tRp1064
(I1
(tg8
I00
S'\xda\x17\xc3\xbe}\x96\x02@'
tbsS'a_subj(1).324'
p1065
g4
(g5
(I0
tS'b'
tRp1066
(I1
(tg8
I00
S'R\x12\xfb"\x1ax\x0b@'
tbsS'a_subj(1).325'
p1067
g4
(g5
(I0
tS'b'
tRp1068
(I1
(tg8
I00
S'\x8aq=5F\x7f\x08@'
tbsS't_subj(1).307'
p1069
g4
(g5
(I0
tS'b'
tRp1070
(I1
(tg8
I00
S'<\xda\xab\xf6h\xf0\xd3?'
tbsS'v(2.1)'
p1071
g4
(g5
(I0
tS'b'
tRp1072
(I1
(tg8
I00
S'\xe9\x8f\x03|\xe6\xe8\x0f@'
tbsS't_subj(3).332'
p1073
g4
(g5
(I0
tS'b'
tRp1074
(I1
(tg8
I00
S'\xe4\xebY\x9c\x17\x8b\xc4?'
tbsS't_subj(3).334'
p1075
g4
(g5
(I0
tS'b'
tRp1076
(I1
(tg8
I00
S'\xd7\xd8\xed\xd4\xdfb\x8b?'
tbsS'v_subj(2.0).328'
p1077
g4
(g5
(I0
tS'b'
tRp1078
(I1
(tg8
I00
S'\xde\xe2\xa1=\xd7\xa6\x0b@'
tbsS'v_subj(2.0).329'
p1079
g4
(g5
(I0
tS'b'
tRp1080
(I1
(tg8
I00
S'!\x8e\x87S\x08\x82\t@'
tbsS'v_subj(2.0).322'
p1081
g4
(g5
(I0
tS'b'
tRp1082
(I1
(tg8
I00
S'\xdbq\xee\xa6\xc5\xfe\x04@'
tbsS'v_subj(2.0).323'
p1083
g4
(g5
(I0
tS'b'
tRp1084
(I1
(tg8
I00
S'\x91|\x91\x1c\x0e\x12\x02@'
tbsS'v_subj(2.0).320'
p1085
g4
(g5
(I0
tS'b'
tRp1086
(I1
(tg8
I00
S'$\xefr\x08\xd3\x16\x05@'
tbsS'v_subj(2.0).324'
p1087
g4
(g5
(I0
tS'b'
tRp1088
(I1
(tg8
I00
S'~\x96\xe2\xf3\xef\xf1\x07@'
tbsS'v_subj(2.0).325'
p1089
g4
(g5
(I0
tS'b'
tRp1090
(I1
(tg8
I00
S'\xd6\x1cd\x8a\x1d\x89\x02@'
tbsg621
g4
(g5
(I0
tS'b'
tRp1091
(I1
(tg8
I00
S"\xb1\xa7\x06u'\x12\t@"
tbsS'a_subj(2).334'
p1092
g4
(g5
(I0
tS'b'
tRp1093
(I1
(tg8
I00
S'\x14\xcd@F\xe7\xea\x04@'
tbsS'a_subj(2).332'
p1094
g4
(g5
(I0
tS'b'
tRp1095
(I1
(tg8
I00
S'\xcf\n\xc1\xc2`\xa5\x01@'
tbsS'v_subj(3.0).334'
p1096
g4
(g5
(I0
tS'b'
tRp1097
(I1
(tg8
I00
S'\xebd\x99\xc1\x0c\xe9\x01@'
tbsS'a_subj(2).338'
p1098
g4
(g5
(I0
tS'b'
tRp1099
(I1
(tg8
I00
S'\x9e\xabxyn\x05\n@'
tbsS'v_subj(2.1).319'
p1100
g4
(g5
(I0
tS'b'
tRp1101
(I1
(tg8
I00
S'GyQ\xe3\xb7:\x0f@'
tbsS'v_subj(2.1).315'
p1102
g4
(g5
(I0
tS'b'
tRp1103
(I1
(tg8
I00
S"'\xe8\xdc\xc7\x0c\xae\x10@"
tbsS'v_subj(2.1).317'
p1104
g4
(g5
(I0
tS'b'
tRp1105
(I1
(tg8
I00
S'\x14\x16\x04\xc9\xb3Z\r@'
tbsS'v_subj(2.1).310'
p1106
g4
(g5
(I0
tS'b'
tRp1107
(I1
(tg8
I00
S'~h\x976\x81\xc6\x07@'
tbsS'v_subj(2.1).311'
p1108
g4
(g5
(I0
tS'b'
tRp1109
(I1
(tg8
I00
S'\x84\t\x1c\x89\x16q\x0c@'
tbsS'v_subj(2.1).312'
p1110
g4
(g5
(I0
tS'b'
tRp1111
(I1
(tg8
I00
S'\xdf\x9a\x12N\xf7\xb8\x12@'
tbsS'v_subj(2.1).313'
p1112
g4
(g5
(I0
tS'b'
tRp1113
(I1
(tg8
I00
S'\xe1E\x06";\xf3\x13@'
tbsS't_subj(1).310'
p1114
g4
(g5
(I0
tS'b'
tRp1115
(I1
(tg8
I00
S'\xc6\xcc\xe0;\xbb\xff\xc3?'
tbsS't_subj(1).311'
p1116
g4
(g5
(I0
tS'b'
tRp1117
(I1
(tg8
I00
S'6\xf8\x08]\xcc\xf2\xd2?'
tbsS't_subj(1).312'
p1118
g4
(g5
(I0
tS'b'
tRp1119
(I1
(tg8
I00
S'\xf1K\xf2\x9eHp\xc8?'
tbsS't_subj(1).313'
p1120
g4
(g5
(I0
tS'b'
tRp1121
(I1
(tg8
I00
S'\xf4\x1bK\x03\xd4\xad\xc8?'
tbsS't_subj(1).314'
p1122
g4
(g5
(I0
tS'b'
tRp1123
(I1
(tg8
I00
S'\xec\x9f\x02\xaf\xddx\xc8?'
tbsS't_subj(1).315'
p1124
g4
(g5
(I0
tS'b'
tRp1125
(I1
(tg8
I00
S'\xfa\x02\xe2\xc5u\xe3\xc7?'
tbsS't_subj(1).317'
p1126
g4
(g5
(I0
tS'b'
tRp1127
(I1
(tg8
I00
S'\xc7\xe1\xe7j\xcf)\xc2?'
tbsS't_subj(1).319'
p1128
g4
(g5
(I0
tS'b'
tRp1129
(I1
(tg8
I00
S' s&~\xe5\xdd\xbb?'
tbsS't_std'
p1130
g4
(g5
(I0
tS'b'
tRp1131
(I1
(tg8
I00
S'z\xdb\xeb\xb7O\xfe\xc3?'
tbsS'z_subj_trans(1).324'
p1132
g4
(g5
(I0
tS'b'
tRp1133
(I1
(tg8
I00
S'\x8e@\xae\xa13\xaf\xe1\xbf'
tbsS'z_subj_trans(1).325'
p1134
g4
(g5
(I0
tS'b'
tRp1135
(I1
(tg8
I00
S'\x89/y\xb7sM\xd3\xbf'
tbsS'z_subj_trans(1).320'
p1136
g4
(g5
(I0
tS'b'
tRp1137
(I1
(tg8
I00
S'\xeb\x88\xa96#\xf8\xd5\xbf'
tbsS'z_subj_trans(1).322'
p1138
g4
(g5
(I0
tS'b'
tRp1139
(I1
(tg8
I00
S'Go\xd5\xf2E \xeb\xbf'
tbsS'z_subj_trans(1).323'
p1140
g4
(g5
(I0
tS'b'
tRp1141
(I1
(tg8
I00
S'\x86\xcf\xbf\x0f\xf1\xbf\xd0\xbf'
tbsS'v_subj(3.1).332'
p1142
g4
(g5
(I0
tS'b'
tRp1143
(I1
(tg8
I00
S'\x8c\xcd\xd2W6C\x15@'
tbsS'z_subj_trans(1).328'
p1144
g4
(g5
(I0
tS'b'
tRp1145
(I1
(tg8
I00
S'ka\xccc\x94q\xe7\xbf'
tbsS'v_subj(3.1).334'
p1146
g4
(g5
(I0
tS'b'
tRp1147
(I1
(tg8
I00
S'\x03\xaa\xf0\x7f\xeb\xf3\x07@'
tbsS'v_subj(1.1).307'
p1148
g4
(g5
(I0
tS'b'
tRp1149
(I1
(tg8
I00
S'\xafd\x11+\xccy\x12@'
tbsg450
g4
(g5
(I0
tS'b'
tRp1150
(I1
(tg8
I00
S'\xe3\xd4s\x00\x87.\x12@'
tbsS'v_subj(1.1).305'
p1151
g4
(g5
(I0
tS'b'
tRp1152
(I1
(tg8
I00
S'K1\xd3<\x94C\x12@'
tbsS'z_subj_trans(3).329'
p1153
g4
(g5
(I0
tS'b'
tRp1154
(I1
(tg8
I00
S'\x90\xafZG\x8a\xc0\xd5\xbf'
tbsS'z_subj_trans(3).324'
p1155
g4
(g5
(I0
tS'b'
tRp1156
(I1
(tg8
I00
S'\xea\x8f\xa8\x8d\xe1\x86\xe7\xbf'
tbsS'z_subj_trans(3).325'
p1157
g4
(g5
(I0
tS'b'
tRp1158
(I1
(tg8
I00
S'\x8a.*\x9ao\x99\xcb\xbf'
tbsS'z_subj_trans(3).322'
p1159
g4
(g5
(I0
tS'b'
tRp1160
(I1
(tg8
I00
S'\\\x1b\x8a\xa9\xd9\x8b\xe0\xbf'
tbsS'z_subj_trans(3).323'
p1161
g4
(g5
(I0
tS'b'
tRp1162
(I1
(tg8
I00
S'\xa0F\x93\xdb\xa2\xd7\xc3\xbf'
tbsS'z_subj_trans(3).320'
p1163
g4
(g5
(I0
tS'b'
tRp1164
(I1
(tg8
I00
S'f\x10\xc1a\xc7\xb9\xdf\xbf'
tbsS'v_subj(1.1).303'
p1165
g4
(g5
(I0
tS'b'
tRp1166
(I1
(tg8
I00
S'\xfe\xfbZ\x19\xc1\xbd\x06@'
tbsS'a_subj(1).311'
p1167
g4
(g5
(I0
tS'b'
tRp1168
(I1
(tg8
I00
S'\xdaCl\xee\xc0\xa3\x08@'
tbsS'a_subj(1).310'
p1169
g4
(g5
(I0
tS'b'
tRp1170
(I1
(tg8
I00
S'\x14R\x1d\xb1\tq\x06@'
tbsS'a_subj(1).313'
p1171
g4
(g5
(I0
tS'b'
tRp1172
(I1
(tg8
I00
S'\xeaxGa\xc3Z\t@'
tbsS'a_subj(1).312'
p1173
g4
(g5
(I0
tS'b'
tRp1174
(I1
(tg8
I00
S'\x18\xe3\xf5\xdb\x00r\x07@'
tbsS'a_subj(1).315'
p1175
g4
(g5
(I0
tS'b'
tRp1176
(I1
(tg8
I00
S'\xf7\x18\x04\r&\xdd\x06@'
tbsS'a_subj(1).314'
p1177
g4
(g5
(I0
tS'b'
tRp1178
(I1
(tg8
I00
S'\xd2-\xady\xed\xed\x0b@'
tbsS'a_subj(1).317'
p1179
g4
(g5
(I0
tS'b'
tRp1180
(I1
(tg8
I00
S'\xeb \xc2V\x11j\x03@'
tbsS'a_subj(1).319'
p1181
g4
(g5
(I0
tS'b'
tRp1182
(I1
(tg8
I00
S')\xf4\x05A\x84$\x08@'
tbsS'z_subj_trans(1).332'
p1183
g4
(g5
(I0
tS'b'
tRp1184
(I1
(tg8
I00
S'U\x01U\xa2\xb82\xea\xbf'
tbssS'step_methods'
p1185
(dp1186
S'SliceStep_a_subj(3).319'
p1187
(dp1188
S'adaptive_scale_factor'
p1189
F1
sS'proposal_distribution'
p1190
S'normal'
p1191
sS'proposal_sd'
p1192
cnumpy.core.multiarray
scalar
p1193
(g8
S'\xbeze\x03J\x17\xf6?'
tRp1194
sS'accepted'
p1195
F0
sS'check_before_accepting'
p1196
I01
sS'rejected'
p1197
F0
ssS'kNormalNormal_v(2.0)'
p1198
(dp1199
g1189
F1
sg1190
g1191
sg1192
g1193
(g8
S'\xc3\xa5\xcf-\xea\xf7\xaf?'
tRp1200
sg1195
F0
sg1196
I01
sg1197
F0
ssS'SliceStep_t_subj(3).320'
p1201
(dp1202
g1189
F1
sg1190
g1191
sg1192
g1193
(g8
S'\xb6;k\x14\x85\x17\xd4?'
tRp1203
sg1195
F0
sg1196
I01
sg1197
F0
ssS'SliceStep_t_subj(3).322'
p1204
(dp1205
g1189
F1
sg1190
g1191
sg1192
g1193
(g8
S'\xb3g\xa4|O/\xdc?'
tRp1206
sg1195
F0
sg1196
I01
sg1197
F0
ssS'SliceStep_t_subj(2).324'
p1207
(dp1208
g1189
F1
sg1190
g1191
sg1192
g1193
(g8
S'\xb3\x92\xab\xf5\xb1~\xd3?'
tRp1209
sg1195
F0
sg1196
I01
sg1197
F0
ssS'SliceStep_t_subj(3).324'
p1210
(dp1211
g1189
F1
sg1190
g1191
sg1192
g1193
(g8
S'\xe3*P\xaey\xa0\xd3?'
tRp1212
sg1195
F0
sg1196
I01
sg1197
F0
ssS'SliceStep_t_subj(2).322'
p1213
(dp1214
g1189
F1
sg1190
g1191
sg1192
g1193
(g8
S'\xe0\xfb~\xa0Sq\xd2?'
tRp1215
sg1195
F0
sg1196
I01
sg1197
F0
ssS'SliceStep_z_subj_trans(1).325'
p1216
(dp1217
g1189
F1
sg1190
g1191
sg1192
g1193
(g8
S'\x15\xff~J\xfe\xbb\xc4?'
tRp1218
sg1195
F0
sg1196
I01
sg1197
F0
ssS'SliceStep_z_subj_trans(1).324'
p1219
(dp1220
g1189
F1
sg1190
g1191
sg1192
g1193
(g8
S'\x96\xd2O#\xddP\xb8?'
tRp1221
sg1195
F0
sg1196
I01
sg1197
F0
ssS'SliceStep_z_subj_trans(1).323'
p1222
(dp1223
g1189
F1
sg1190
g1191
sg1192
g1193
(g8
S'\x9b_\x8br\xf8R\xd5?'
tRp1224
sg1195
F0
sg1196
I01
sg1197
F0
ssS'SliceStep_z_subj_trans(1).322'
p1225
(dp1226
g1189
F1
sg1190
g1191
sg1192
g1193
(g8
S'\xe3\xf7\x14T\x8a\xa5\xb9?'
tRp1227
sg1195
F0
sg1196
I01
sg1197
F0
ssS'SliceStep_z_subj_trans(1).320'
p1228
(dp1229
g1189
F1
sg1190
g1191
sg1192
g1193
(g8
S'\x89\xf2\x85IQ\x15\xd7?'
tRp1230
sg1195
F0
sg1196
I01
sg1197
F0
ssS'SliceStep_t(3)'
p1231
(dp1232
g1189
F1
sg1190
g1191
sg1192
g1193
(g8
S'\x08X\xcey\xf9\xdb\xcf?'
tRp1233
sg1195
F0
sg1196
I01
sg1197
F0
ssS'SliceStep_t_subj(2).320'
p1234
(dp1235
g1189
F1
sg1190
g1191
sg1192
g1193
(g8
S'\xd2\x9ee\x96\x8a;\xd8?'
tRp1236
sg1195
F0
sg1196
I01
sg1197
F0
ssS'SliceStep_z_subj_trans(1).329'
p1237
(dp1238
g1189
F1
sg1190
g1191
sg1192
g1193
(g8
S'E!\x7f\xf7\xfe\x9c\xcc?'
tRp1239
sg1195
F0
sg1196
I01
sg1197
F0
ssS'SliceStep_z_subj_trans(1).328'
p1240
(dp1241
g1189
F1
sg1190
g1191
sg1192
g1193
(g8
S'\x1dWZ\xbec\x92\xbe?'
tRp1242
sg1195
F0
sg1196
I01
sg1197
F0
ssS'SliceStep_a_subj(2).317'
p1243
(dp1244
g1189
F1
sg1190
g1191
sg1192
g1193
(g8
S'R\x89w\xabo\x9e\xf6?'
tRp1245
sg1195
F0
sg1196
I01
sg1197
F0
ssS'SliceStep_a_subj(2).315'
p1246
(dp1247
g1189
F1
sg1190
g1191
sg1192
g1193
(g8
S'\xf3\xc6\xf0\xa0[\x0c\xf6?'
tRp1248
sg1195
F0
sg1196
I01
sg1197
F0
ssS'SliceStep_v_subj(1.1).324'
p1249
(dp1250
g1189
F1
sg1190
g1191
sg1192
g1193
(g8
S'6\xd3\xbf\x94`d\xf2?'
tRp1251
sg1195
F0
sg1196
I01
sg1197
F0
ssS'SliceStep_a_subj(2).313'
p1252
(dp1253
g1189
F1
sg1190
g1191
sg1192
g1193
(g8
S'"Y\xf1\xed\xf7\x18\xf3?'
tRp1254
sg1195
F0
sg1196
I01
sg1197
F0
ssS'SliceStep_a_subj(2).312'
p1255
(dp1256
g1189
F1
sg1190
g1191
sg1192
g1193
(g8
S'\xa7-\x1b\xa8`\xc4\xf1?'
tRp1257
sg1195
F0
sg1196
I01
sg1197
F0
ssS'SliceStep_a_subj(2).311'
p1258
(dp1259
g1189
F1
sg1190
g1191
sg1192
g1193
(g8
S'\x04m!\x87Y\x7f\xf5?'
tRp1260
sg1195
F0
sg1196
I01
sg1197
F0
ssS'SliceStep_a_subj(2).310'
p1261
(dp1262
g1189
F1
sg1190
g1191
sg1192
g1193
(g8
S'\x94AZ\x02\\\xd3\xf7?'
tRp1263
sg1195
F0
sg1196
I01
sg1197
F0
ssS'SliceStep_v_subj(1.1).332'
p1264
(dp1265
g1189
F1
sg1190
g1191
sg1192
g1193
(g8
S'a(\xd7\xfa\x066\xea?'
tRp1266
sg1195
F0
sg1196
I01
sg1197
F0
ssS'SliceStep_v_subj(1.1).329'
p1267
(dp1268
g1189
F1
sg1190
g1191
sg1192
g1193
(g8
S'H\x99\xdb\x03\xc1@\xee?'
tRp1269
sg1195
F0
sg1196
I01
sg1197
F0
ssS'SliceStep_v_subj(1.1).328'
p1270
(dp1271
g1189
F1
sg1190
g1191
sg1192
g1193
(g8
S'\x99|x\x0c\xb3\xa8\xe9?'
tRp1272
sg1195
F0
sg1196
I01
sg1197
F0
ssS'SliceStep_t_subj(3).329'
p1273
(dp1274
g1189
F1
sg1190
g1191
sg1192
g1193
(g8
S'{\xb8\xae\xb6\xdd\xbf\xcc?'
tRp1275
sg1195
F0
sg1196
I01
sg1197
F0
ssS'SliceStep_v_subj(2.0).315'
p1276
(dp1277
g1189
F1
sg1190
g1191
sg1192
g1193
(g8
S'\x9ef\xdf\xab\xf4\x8d\xb1?'
tRp1278
sg1195
F0
sg1196
I01
sg1197
F0
ssS'SliceStep_v_subj(2.0).317'
p1279
(dp1280
g1189
F1
sg1190
g1191
sg1192
g1193
(g8
S'\xfd\xdfL\xde\xa4\xfd\xac?'
tRp1281
sg1195
F0
sg1196
I01
sg1197
F0
ssS'SliceStep_v_subj(2.0).310'
p1282
(dp1283
g1189
F1
sg1190
g1191
sg1192
g1193
(g8
S'~\xb6\x9frW\x8f\xb1?'
tRp1284
sg1195
F0
sg1196
I01
sg1197
F0
ssS'SliceStep_v_subj(2.0).311'
p1285
(dp1286
g1189
F1
sg1190
g1191
sg1192
g1193
(g8
S'\xa1\xe6+\xe1\x82\xb3\xab?'
tRp1287
sg1195
F0
sg1196
I01
sg1197
F0
ssS'SliceStep_v_subj(2.0).312'
p1288
(dp1289
g1189
F1
sg1190
g1191
sg1192
g1193
(g8
S'\xa1\xce\x01M\xc2IT>'
tRp1290
sg1195
F0
sg1196
I01
sg1197
F0
ssS'SliceStep_v_subj(2.0).313'
p1291
(dp1292
g1189
F1
sg1190
g1191
sg1192
g1193
(g8
S'\xdeY\xe3\xea\xf4\x94\xa9?'
tRp1293
sg1195
F0
sg1196
I01
sg1197
F0
ssS'SliceStep_v_subj(1.0).312'
p1294
(dp1295
g1189
F1
sg1190
g1191
sg1192
g1193
(g8
S'\x8b\xcd\x01\xae\x8a\x00|?'
tRp1296
sg1195
F0
sg1196
I01
sg1197
F0
ssS'SliceStep_v_subj(2.0).319'
p1297
(dp1298
g1189
F1
sg1190
g1191
sg1192
g1193
(g8
S'\x1c\xb4U\xab\xab\xb0\xb1?'
tRp1299
sg1195
F0
sg1196
I01
sg1197
F0
ssS'SliceStep_z_subj_trans(2).304'
p1300
(dp1301
g1189
F1
sg1190
g1191
sg1192
g1193
(g8
S'\xd3\x97i\xdc\xa6\x99\xc9?'
tRp1302
sg1195
F0
sg1196
I01
sg1197
F0
ssS'SliceStep_z_subj_trans(2).305'
p1303
(dp1304
g1189
F1
sg1190
g1191
sg1192
g1193
(g8
S',B\x9f&\x84b\xc2?'
tRp1305
sg1195
F0
sg1196
I01
sg1197
F0
ssS'SliceStep_z_subj_trans(2).307'
p1306
(dp1307
g1189
F1
sg1190
g1191
sg1192
g1193
(g8
S'\x19\x8a\xee*\x87\xb8\xcc?'
tRp1308
sg1195
F0
sg1196
I01
sg1197
F0
ssS'SliceStep_z_subj_trans(2).302'
p1309
(dp1310
g1189
F1
sg1190
g1191
sg1192
g1193
(g8
S'<\x99e\xe3z\n\xd1?'
tRp1311
sg1195
F0
sg1196
I01
sg1197
F0
ssS'SliceStep_z_subj_trans(2).303'
p1312
(dp1313
g1189
F1
sg1190
g1191
sg1192
g1193
(g8
S'/W\xdf\xf3\xb5\x8f\x94?'
tRp1314
sg1195
F0
sg1196
I01
sg1197
F0
ssS'SliceStep_z_subj_trans(2).308'
p1315
(dp1316
g1189
F1
sg1190
g1191
sg1192
g1193
(g8
S'C\xf7\x91v\x9e\x17\xa2?'
tRp1317
sg1195
F0
sg1196
I01
sg1197
F0
ssS'SliceStep_z_subj_trans(2).309'
p1318
(dp1319
g1189
F1
sg1190
g1191
sg1192
g1193
(g8
S'\xd9\xc3\xa2\x92\xe6F\xc4?'
tRp1320
sg1195
F0
sg1196
I01
sg1197
F0
ssS'SliceStep_t_subj(2).334'
p1321
(dp1322
g1189
F1
sg1190
g1191
sg1192
g1193
(g8
S'\x86\xea\x9c/\xde\xf9\xbc?'
tRp1323
sg1195
F0
sg1196
I01
sg1197
F0
ssS'SliceStep_t_subj(2).336'
p1324
(dp1325
g1189
F1
sg1190
g1191
sg1192
g1193
(g8
S'\x97\xb5M\xea\x81\xc8\xbd?'
tRp1326
sg1195
F0
sg1196
I01
sg1197
F0
ssS'SliceStep_a_subj(3).329'
p1327
(dp1328
g1189
F1
sg1190
g1191
sg1192
g1193
(g8
S'Q\x92\xd0c\xef\x9b\xf2?'
tRp1329
sg1195
F0
sg1196
I01
sg1197
F0
ssS'SliceStep_v_subj(1.0).308'
p1330
(dp1331
g1189
F1
sg1190
g1191
sg1192
g1193
(g8
S'\xe5l\xf4+\xb0_\xa5?'
tRp1332
sg1195
F0
sg1196
I01
sg1197
F0
ssS'SliceStep_v_subj(1.0).309'
p1333
(dp1334
g1189
F1
sg1190
g1191
sg1192
g1193
(g8
S'c\x938\x1dN\xdd:>'
tRp1335
sg1195
F0
sg1196
I01
sg1197
F0
ssS'SliceStep_t_subj(3).315'
p1336
(dp1337
g1189
F1
sg1190
g1191
sg1192
g1193
(g8
S'|M\x87\x9b\xaeB\xd8?'
tRp1338
sg1195
F0
sg1196
I01
sg1197
F0
ssS'SliceStep_a_subj(3).324'
p1339
(dp1340
g1189
F1
sg1190
g1191
sg1192
g1193
(g8
S'D\xbd\x94eH\xa2\xf1?'
tRp1341
sg1195
F0
sg1196
I01
sg1197
F0
ssS'SliceStep_v_subj(1.0).304'
p1342
(dp1343
g1189
F1
sg1190
g1191
sg1192
g1193
(g8
S'9!Y\x1c\x8f\x03\x88?'
tRp1344
sg1195
F0
sg1196
I01
sg1197
F0
ssS'SliceStep_v_subj(1.0).305'
p1345
(dp1346
g1189
F1
sg1190
g1191
sg1192
g1193
(g8
S'$\x8c\xae\xa5\xa1\xdf\x97?'
tRp1347
sg1195
F0
sg1196
I01
sg1197
F0
ssS'SliceStep_t_subj(3).311'
p1348
(dp1349
g1189
F1
sg1190
g1191
sg1192
g1193
(g8
S'.\x17\xda\xf7\xac\x02\xc3?'
tRp1350
sg1195
F0
sg1196
I01
sg1197
F0
ssS'SliceStep_t_subj(3).310'
p1351
(dp1352
g1189
F1
sg1190
g1191
sg1192
g1193
(g8
S'\xe5v\xf2\xdf\xfeE\x93?'
tRp1353
sg1195
F0
sg1196
I01
sg1197
F0
ssS'SliceStep_t_subj(3).313'
p1354
(dp1355
g1189
F1
sg1190
g1191
sg1192
g1193
(g8
S'_#\x96m\x01\x14\xce?'
tRp1356
sg1195
F0
sg1196
I01
sg1197
F0
ssS'SliceStep_a_subj(3).322'
p1357
(dp1358
g1189
F1
sg1190
g1191
sg1192
g1193
(g8
S'\xae\x8c\x11\x15c`\xef?'
tRp1359
sg1195
F0
sg1196
I01
sg1197
F0
ssS'SliceStep_t_std'
p1360
(dp1361
g1189
F1
sg1190
g1191
sg1192
g1193
(g8
S'\xf4\n\x07\x16\x88\x07\xba?'
tRp1362
sg1195
F0
sg1196
I01
sg1197
F0
ssS'SliceStep_v_subj(1.0).323'
p1363
(dp1364
g1189
F1
sg1190
g1191
sg1192
g1193
(g8
S"\x81\xfa'\x8c\x0e\xed\xa0?"
tRp1365
sg1195
F0
sg1196
I01
sg1197
F0
ssS'SliceStep_v_subj(2.1).322'
p1366
(dp1367
g1189
F1
sg1190
g1191
sg1192
g1193
(g8
S'}\x9dB\r\xdc\xea\xed?'
tRp1368
sg1195
F0
sg1196
I01
sg1197
F0
ssS'SliceStep_v_subj(2.1).323'
p1369
(dp1370
g1189
F1
sg1190
g1191
sg1192
g1193
(g8
S'\x06\xb19\xf7\x14h\xd6?'
tRp1371
sg1195
F0
sg1196
I01
sg1197
F0
ssS'SliceStep_v_subj(2.1).320'
p1372
(dp1373
g1189
F1
sg1190
g1191
sg1192
g1193
(g8
S']2\xafF\xae\xe0\xe0?'
tRp1374
sg1195
F0
sg1196
I01
sg1197
F0
ssS'SliceStep_v_subj(2.1).324'
p1375
(dp1376
g1189
F1
sg1190
g1191
sg1192
g1193
(g8
S'\x1fC\x1fM\xd9\x95\xd8?'
tRp1377
sg1195
F0
sg1196
I01
sg1197
F0
ssS'SliceStep_v_subj(2.1).325'
p1378
(dp1379
g1189
F1
sg1190
g1191
sg1192
g1193
(g8
S'\x10\xabg\x89i\xd9\xc2?'
tRp1380
sg1195
F0
sg1196
I01
sg1197
F0
ssS'SliceStep_t_subj(2).312'
p1381
(dp1382
g1189
F1
sg1190
g1191
sg1192
g1193
(g8
S'#!O\xf6\x9fj\xd8?'
tRp1383
sg1195
F0
sg1196
I01
sg1197
F0
ssS'SliceStep_v_subj(2.1).328'
p1384
(dp1385
g1189
F1
sg1190
g1191
sg1192
g1193
(g8
S'\xee\xf4\x9c\xa0B\x88\xe9?'
tRp1386
sg1195
F0
sg1196
I01
sg1197
F0
ssS'SliceStep_v_subj(2.1).329'
p1387
(dp1388
g1189
F1
sg1190
g1191
sg1192
g1193
(g8
S'\xbamT\x85\x96\xa4\xe3?'
tRp1389
sg1195
F0
sg1196
I01
sg1197
F0
ssS'SliceStep_t_subj(2).313'
p1390
(dp1391
g1189
F1
sg1190
g1191
sg1192
g1193
(g8
S'\x92\x14\x87`#\xb2\xd3?'
tRp1392
sg1195
F0
sg1196
I01
sg1197
F0
ssS'SliceStep_v_subj(1.1).308'
p1393
(dp1394
g1189
F1
sg1190
g1191
sg1192
g1193
(g8
S'\x9b\xe8W&\x90m\xe9?'
tRp1395
sg1195
F0
sg1196
I01
sg1197
F0
ssS'SliceStep_a_subj(1).305'
p1396
(dp1397
g1189
F1
sg1190
g1191
sg1192
g1193
(g8
S'\xe9Cl\xe4\x01\xac\xf0?'
tRp1398
sg1195
F0
sg1196
I01
sg1197
F0
ssS'SliceStep_a_subj(1).304'
p1399
(dp1400
g1189
F1
sg1190
g1191
sg1192
g1193
(g8
S"'i\x9e/\xd6\xde\xf0?"
tRp1401
sg1195
F0
sg1196
I01
sg1197
F0
ssS'SliceStep_a_subj(1).307'
p1402
(dp1403
g1189
F1
sg1190
g1191
sg1192
g1193
(g8
S'\x99[\x15p\x99m\xec?'
tRp1404
sg1195
F0
sg1196
I01
sg1197
F0
ssS'kNormalNormal_z_trans(1)'
p1405
(dp1406
g1189
F1
sg1190
g1191
sg1192
g1193
(g8
S'\xeb\xf7\xaa\xa2\xd2\xb0\xc5?'
tRp1407
sg1195
F0
sg1196
I01
sg1197
F0
ssS'SliceStep_a_subj(1).303'
p1408
(dp1409
g1189
F1
sg1190
g1191
sg1192
g1193
(g8
S'\x9f\xf0\xeb\x16\xda\x04\xfb?'
tRp1410
sg1195
F0
sg1196
I01
sg1197
F0
ssS'SliceStep_a_subj(1).302'
p1411
(dp1412
g1189
F1
sg1190
g1191
sg1192
g1193
(g8
S'\x8d\xfb\x19\xc8\x84\xfb\xf4?'
tRp1413
sg1195
F0
sg1196
I01
sg1197
F0
ssS'SliceStep_a_subj(1).309'
p1414
(dp1415
g1189
F1
sg1190
g1191
sg1192
g1193
(g8
S'\xfdiD\xb0\xb0\r\xf0?'
tRp1416
sg1195
F0
sg1196
I01
sg1197
F0
ssS'SliceStep_a_subj(1).308'
p1417
(dp1418
g1189
F1
sg1190
g1191
sg1192
g1193
(g8
S'\x19!\x07\tc\xdc\xf5?'
tRp1419
sg1195
F0
sg1196
I01
sg1197
F0
ssS'SliceStep_v_subj(3.0).313'
p1420
(dp1421
g1189
F1
sg1190
g1191
sg1192
g1193
(g8
S'C\x83\'"R\xea\xa5?'
tRp1422
sg1195
F0
sg1196
I01
sg1197
F0
ssS'SliceStep_v_subj(3.0).311'
p1423
(dp1424
g1189
F1
sg1190
g1191
sg1192
g1193
(g8
S'\x9e\x9d\x16\x81"\xdc\xac?'
tRp1425
sg1195
F0
sg1196
I01
sg1197
F0
ssS'SliceStep_v_subj(3.0).310'
p1426
(dp1427
g1189
F1
sg1190
g1191
sg1192
g1193
(g8
S'\x89\x1aZ`E\x07\xc0?'
tRp1428
sg1195
F0
sg1196
I01
sg1197
F0
ssS'SliceStep_v_subj(3.0).317'
p1429
(dp1430
g1189
F1
sg1190
g1191
sg1192
g1193
(g8
S'\x92q\xf0B\xffqu?'
tRp1431
sg1195
F0
sg1196
I01
sg1197
F0
ssS'SliceStep_v_subj(3.0).315'
p1432
(dp1433
g1189
F1
sg1190
g1191
sg1192
g1193
(g8
S'\xc9hy%\xbe\x91\x91?'
tRp1434
sg1195
F0
sg1196
I01
sg1197
F0
ssS'SliceStep_v_subj(3.1).332'
p1435
(dp1436
g1189
F1
sg1190
g1191
sg1192
g1193
(g8
S'\xbe\xd8\xc0]U#\xc5?'
tRp1437
sg1195
F0
sg1196
I01
sg1197
F0
ssS'SliceStep_v_subj(3.0).319'
p1438
(dp1439
g1189
F1
sg1190
g1191
sg1192
g1193
(g8
S'\x80\xebl\x12\xfe|\xa5?'
tRp1440
sg1195
F0
sg1196
I01
sg1197
F0
ssS'SliceStep_v_subj(3.1).334'
p1441
(dp1442
g1189
F1
sg1190
g1191
sg1192
g1193
(g8
S'\xddz\x1f\xe9\x8f\xd8\xe6?'
tRp1443
sg1195
F0
sg1196
I01
sg1197
F0
ssS'SliceStep_t_subj(1).328'
p1444
(dp1445
g1189
F1
sg1190
g1191
sg1192
g1193
(g8
S'+V\xb8?\xb9I\xc9?'
tRp1446
sg1195
F0
sg1196
I01
sg1197
F0
ssS'SliceStep_t_subj(1).329'
p1447
(dp1448
g1189
F1
sg1190
g1191
sg1192
g1193
(g8
S'\xc3\x8f\xc6\x11\x9a\xeb\xd7?'
tRp1449
sg1195
F0
sg1196
I01
sg1197
F0
ssS'SliceStep_t_subj(1).322'
p1450
(dp1451
g1189
F1
sg1190
g1191
sg1192
g1193
(g8
S'\x8c"\xb8\x96\x98\xed\xd7?'
tRp1452
sg1195
F0
sg1196
I01
sg1197
F0
ssS'SliceStep_t_subj(1).323'
p1453
(dp1454
g1189
F1
sg1190
g1191
sg1192
g1193
(g8
S'\xa2O\xa4\xad<\\\xd8?'
tRp1455
sg1195
F0
sg1196
I01
sg1197
F0
ssS'SliceStep_t_subj(1).320'
p1456
(dp1457
g1189
F1
sg1190
g1191
sg1192
g1193
(g8
S'\xbdca\xc0\x9f\xd1\xd8?'
tRp1458
sg1195
F0
sg1196
I01
sg1197
F0
ssS'SliceStep_t_subj(1).324'
p1459
(dp1460
g1189
F1
sg1190
g1191
sg1192
g1193
(g8
S'\xa5\x92P]\x98\x91\xd7?'
tRp1461
sg1195
F0
sg1196
I01
sg1197
F0
ssS'SliceStep_t_subj(1).325'
p1462
(dp1463
g1189
F1
sg1190
g1191
sg1192
g1193
(g8
S'pC\xf4\xb9\xdd\x94\xd6?'
tRp1464
sg1195
F0
sg1196
I01
sg1197
F0
ssS'SliceStep_v_std'
p1465
(dp1466
g1189
F1
sg1190
g1191
sg1192
g1193
(g8
S'\xa1\xc5\r\x9e\xe3\xfd\xc7?'
tRp1467
sg1195
F0
sg1196
I01
sg1197
F0
ssS'SliceStep_t(2)'
p1468
(dp1469
g1189
F1
sg1190
g1191
sg1192
g1193
(g8
S'\xf9\xcb4\xa4)\x1d\xce?'
tRp1470
sg1195
F0
sg1196
I01
sg1197
F0
ssS'SliceStep_z_subj_trans(3).332'
p1471
(dp1472
g1189
F1
sg1190
g1191
sg1192
g1193
(g8
S'q\xe2U\x85\xa0m\x90?'
tRp1473
sg1195
F0
sg1196
I01
sg1197
F0
ssS'SliceStep_z_subj_trans(3).334'
p1474
(dp1475
g1189
F1
sg1190
g1191
sg1192
g1193
(g8
S"\xeb!\xc2'\xfa\xbf\xc1?"
tRp1476
sg1195
F0
sg1196
I01
sg1197
F0
ssS'SliceStep_v_subj(2.0).329'
p1477
(dp1478
g1189
F1
sg1190
g1191
sg1192
g1193
(g8
S'z{j\x9b\xea\x93\xb9?'
tRp1479
sg1195
F0
sg1196
I01
sg1197
F0
ssS'SliceStep_v_subj(2.0).328'
p1480
(dp1481
g1189
F1
sg1190
g1191
sg1192
g1193
(g8
S'\xe2\x83i\x8a\x18\x8e\xb9?'
tRp1482
sg1195
F0
sg1196
I01
sg1197
F0
ssS'SliceStep_v_subj(2.0).325'
p1483
(dp1484
g1189
F1
sg1190
g1191
sg1192
g1193
(g8
S'/nE\n\xbazv?'
tRp1485
sg1195
F0
sg1196
I01
sg1197
F0
ssS'SliceStep_v_subj(2.0).324'
p1486
(dp1487
g1189
F1
sg1190
g1191
sg1192
g1193
(g8
S'\xe0\x92i\n\x99\xf0\xa1?'
tRp1488
sg1195
F0
sg1196
I01
sg1197
F0
ssS'SliceStep_v_subj(2.0).320'
p1489
(dp1490
g1189
F1
sg1190
g1191
sg1192
g1193
(g8
S'\x1c\xf6[\x15\x86\x91\xa0?'
tRp1491
sg1195
F0
sg1196
I01
sg1197
F0
ssS'SliceStep_v_subj(2.0).323'
p1492
(dp1493
g1189
F1
sg1190
g1191
sg1192
g1193
(g8
S'\x88)\x89k\xca \x99?'
tRp1494
sg1195
F0
sg1196
I01
sg1197
F0
ssS'SliceStep_v_subj(2.0).322'
p1495
(dp1496
g1189
F1
sg1190
g1191
sg1192
g1193
(g8
S'\xec\xf8\x0f\xae\xb6\xf1\xbb?'
tRp1497
sg1195
F0
sg1196
I01
sg1197
F0
ssS'SliceStep_a(2)'
p1498
(dp1499
g1189
F1
sg1190
g1191
sg1192
g1193
(g8
S"\xc9\xb5\xbc|'\x96\xf4?"
tRp1500
sg1195
F0
sg1196
I01
sg1197
F0
ssS'SliceStep_z_subj_trans(2).338'
p1501
(dp1502
g1189
F1
sg1190
g1191
sg1192
g1193
(g8
S'\xde\r\xd6{\xe1\xed\xa8?'
tRp1503
sg1195
F0
sg1196
I01
sg1197
F0
ssS'SliceStep_v_subj(1.0).302'
p1504
(dp1505
g1189
F1
sg1190
g1191
sg1192
g1193
(g8
S'#\xe3\xc5&1a\xab?'
tRp1506
sg1195
F0
sg1196
I01
sg1197
F0
ssS'SliceStep_z_subj_trans(2).334'
p1507
(dp1508
g1189
F1
sg1190
g1191
sg1192
g1193
(g8
S'S\xb4e\xd1\x96\xe5g?'
tRp1509
sg1195
F0
sg1196
I01
sg1197
F0
ssS'SliceStep_z_subj_trans(2).336'
p1510
(dp1511
g1189
F1
sg1190
g1191
sg1192
g1193
(g8
S'Vt\x18\xc1\x1f\xdf\xa0?'
tRp1512
sg1195
F0
sg1196
I01
sg1197
F0
ssS'SliceStep_z_subj_trans(2).332'
p1513
(dp1514
g1189
F1
sg1190
g1191
sg1192
g1193
(g8
S'K\xa0\xe8\xa5@1\xca?'
tRp1515
sg1195
F0
sg1196
I01
sg1197
F0
ssS'SliceStep_v_subj(1.0).303'
p1516
(dp1517
g1189
F1
sg1190
g1191
sg1192
g1193
(g8
S'.\x8b\xe4\xee\x03z\xc9?'
tRp1518
sg1195
F0
sg1196
I01
sg1197
F0
ssS'SliceStep_z_subj_trans(1).304'
p1519
(dp1520
g1189
F1
sg1190
g1191
sg1192
g1193
(g8
S'\xe9\xe9\xc8b+s\xce?'
tRp1521
sg1195
F0
sg1196
I01
sg1197
F0
ssS'kNormalNormal_v(2.1)'
p1522
(dp1523
g1189
F1
sg1190
g1191
sg1192
g1193
(g8
S'nG\x98\x1c\x9f:\xe6?'
tRp1524
sg1195
F0
sg1196
I01
sg1197
F0
ssS'SliceStep_t_subj(2).338'
p1525
(dp1526
g1189
F1
sg1190
g1191
sg1192
g1193
(g8
S';\xc6\x9c\xb4c\x1a\xb5?'
tRp1527
sg1195
F0
sg1196
I01
sg1197
F0
ssS'SliceStep_t_subj(1).313'
p1528
(dp1529
g1189
F1
sg1190
g1191
sg1192
g1193
(g8
S'r9\xbb\x11\xb6\xb2\xd3?'
tRp1530
sg1195
F0
sg1196
I01
sg1197
F0
ssS'SliceStep_t_subj(1).312'
p1531
(dp1532
g1189
F1
sg1190
g1191
sg1192
g1193
(g8
S'9\x05\x7fS.;\xd8?'
tRp1533
sg1195
F0
sg1196
I01
sg1197
F0
ssS'SliceStep_t_subj(1).311'
p1534
(dp1535
g1189
F1
sg1190
g1191
sg1192
g1193
(g8
S'c\x9f\xd3\xc9]:\xdc?'
tRp1536
sg1195
F0
sg1196
I01
sg1197
F0
ssS'SliceStep_t_subj(1).310'
p1537
(dp1538
g1189
F1
sg1190
g1191
sg1192
g1193
(g8
S'$j\xbd\x97Gk\xd4?'
tRp1539
sg1195
F0
sg1196
I01
sg1197
F0
ssS'SliceStep_t_subj(1).317'
p1540
(dp1541
g1189
F1
sg1190
g1191
sg1192
g1193
(g8
S'\xab\x18I\xa5\x7f\x88\xcd?'
tRp1542
sg1195
F0
sg1196
I01
sg1197
F0
ssS'SliceStep_t_subj(1).315'
p1543
(dp1544
g1189
F1
sg1190
g1191
sg1192
g1193
(g8
S'\xd4\xd4x\xfb\xda-\xd8?'
tRp1545
sg1195
F0
sg1196
I01
sg1197
F0
ssS'SliceStep_t_subj(1).314'
p1546
(dp1547
g1189
F1
sg1190
g1191
sg1192
g1193
(g8
S'tCw\xb4\xf1\x08\xd7?'
tRp1548
sg1195
F0
sg1196
I01
sg1197
F0
ssS'SliceStep_t_subj(1).319'
p1549
(dp1550
g1189
F1
sg1190
g1191
sg1192
g1193
(g8
S'\x18\xe4*\x91N{\xd7?'
tRp1551
sg1195
F0
sg1196
I01
sg1197
F0
ssS'SliceStep_v_subj(1.1).334'
p1552
(dp1553
g1189
F1
sg1190
g1191
sg1192
g1193
(g8
S'\xce\xf7\xe8\xcd\xb7I\xce?'
tRp1554
sg1195
F0
sg1196
I01
sg1197
F0
ssS'SliceStep_v_subj(1.1).336'
p1555
(dp1556
g1189
F1
sg1190
g1191
sg1192
g1193
(g8
S'm +8Jw\xe7?'
tRp1557
sg1195
F0
sg1196
I01
sg1197
F0
ssS'SliceStep_z_subj_trans(1).332'
p1558
(dp1559
g1189
F1
sg1190
g1191
sg1192
g1193
(g8
S'\x83\xa7\x01L{\x85\xd3?'
tRp1560
sg1195
F0
sg1196
I01
sg1197
F0
ssS'SliceStep_z_subj_trans(1).334'
p1561
(dp1562
g1189
F1
sg1190
g1191
sg1192
g1193
(g8
S';\xc0S\xf9\x11\xbd\xc1?'
tRp1563
sg1195
F0
sg1196
I01
sg1197
F0
ssS'SliceStep_z_subj_trans(1).336'
p1564
(dp1565
g1189
F1
sg1190
g1191
sg1192
g1193
(g8
S'\xff\xde3\xba\xce}\xb2?'
tRp1566
sg1195
F0
sg1196
I01
sg1197
F0
ssS'SliceStep_z_subj_trans(1).338'
p1567
(dp1568
g1189
F1
sg1190
g1191
sg1192
g1193
(g8
S'\xab\xea,W\x0b\x7f\xc3?'
tRp1569
sg1195
F0
sg1196
I01
sg1197
F0
ssS'SliceStep_a_subj(2).304'
p1570
(dp1571
g1189
F1
sg1190
g1191
sg1192
g1193
(g8
S'\xbf\x95*\xaa\x8f8\xf0?'
tRp1572
sg1195
F0
sg1196
I01
sg1197
F0
ssS'SliceStep_a_subj(2).305'
p1573
(dp1574
g1189
F1
sg1190
g1191
sg1192
g1193
(g8
S'\xd2\xa2k\xbbD\x9e\xf2?'
tRp1575
sg1195
F0
sg1196
I01
sg1197
F0
ssS'SliceStep_a_subj(2).307'
p1576
(dp1577
g1189
F1
sg1190
g1191
sg1192
g1193
(g8
S'q\xfa\x91$r\xa4\xf0?'
tRp1578
sg1195
F0
sg1196
I01
sg1197
F0
ssS'SliceStep_a_subj(2).302'
p1579
(dp1580
g1189
F1
sg1190
g1191
sg1192
g1193
(g8
S"\xd3Y{\x08e'\xf2?"
tRp1581
sg1195
F0
sg1196
I01
sg1197
F0
ssS'SliceStep_a_subj(2).303'
p1582
(dp1583
g1189
F1
sg1190
g1191
sg1192
g1193
(g8
S'\xa8\x9f\xa7\x8c\x9d@\xf6?'
tRp1584
sg1195
F0
sg1196
I01
sg1197
F0
ssS'SliceStep_a_subj(2).308'
p1585
(dp1586
g1189
F1
sg1190
g1191
sg1192
g1193
(g8
S'Lm\x94a\xd6A\xfa?'
tRp1587
sg1195
F0
sg1196
I01
sg1197
F0
ssS'SliceStep_a_subj(2).309'
p1588
(dp1589
g1189
F1
sg1190
g1191
sg1192
g1193
(g8
S'_*\xe60\x8ca\xf2?'
tRp1590
sg1195
F0
sg1196
I01
sg1197
F0
ssS'SliceStep_a_subj(3).304'
p1591
(dp1592
g1189
F1
sg1190
g1191
sg1192
g1193
(g8
S'\xaf\xb1\xaa\x91\x07\xb7\xf0?'
tRp1593
sg1195
F0
sg1196
I01
sg1197
F0
ssS'SliceStep_z_subj_trans(3).317'
p1594
(dp1595
g1189
F1
sg1190
g1191
sg1192
g1193
(g8
S'\xce<|kO\xaf\xbd?'
tRp1596
sg1195
F0
sg1196
I01
sg1197
F0
ssS'SliceStep_a_std'
p1597
(dp1598
g1189
F1
sg1190
g1191
sg1192
g1193
(g8
S'] \xca\xfcrb\xc8?'
tRp1599
sg1195
F0
sg1196
I01
sg1197
F0
ssS'SliceStep_v_subj(1.0).332'
p1600
(dp1601
g1189
F1
sg1190
g1191
sg1192
g1193
(g8
S'\xb6\xe2\xc5\xae\n\x7f\x9b?'
tRp1602
sg1195
F0
sg1196
I01
sg1197
F0
ssS'SliceStep_t_subj(3).308'
p1603
(dp1604
g1189
F1
sg1190
g1191
sg1192
g1193
(g8
S'\xfa\xd5\xbd\xd8\xb01\xd3?'
tRp1605
sg1195
F0
sg1196
I01
sg1197
F0
ssS'SliceStep_t_subj(3).309'
p1606
(dp1607
g1189
F1
sg1190
g1191
sg1192
g1193
(g8
S'\xc9\xc5\xa5\xa8J\xa7\xcd?'
tRp1608
sg1195
F0
sg1196
I01
sg1197
F0
ssS'SliceStep_t_subj(2).305'
p1609
(dp1610
g1189
F1
sg1190
g1191
sg1192
g1193
(g8
S'\xf6?^\xaf\x1a\xb2\xd3?'
tRp1611
sg1195
F0
sg1196
I01
sg1197
F0
ssS'SliceStep_t_subj(2).304'
p1612
(dp1613
g1189
F1
sg1190
g1191
sg1192
g1193
(g8
S'\xd2 \x88\x01C~\xd8?'
tRp1614
sg1195
F0
sg1196
I01
sg1197
F0
ssS'SliceStep_t_subj(2).307'
p1615
(dp1616
g1189
F1
sg1190
g1191
sg1192
g1193
(g8
S'\xfb\\\xe9\xef\xb1\xf3\xd3?'
tRp1617
sg1195
F0
sg1196
I01
sg1197
F0
ssS'SliceStep_v_subj(1.0).334'
p1618
(dp1619
g1189
F1
sg1190
g1191
sg1192
g1193
(g8
S'\xdd.\x0eHt\xb3\xb8='
tRp1620
sg1195
F0
sg1196
I01
sg1197
F0
ssS'SliceStep_a_subj(3).332'
p1621
(dp1622
g1189
F1
sg1190
g1191
sg1192
g1193
(g8
S'\xa5x$\xfbxm\xf1?'
tRp1623
sg1195
F0
sg1196
I01
sg1197
F0
ssS'SliceStep_t_subj(2).308'
p1624
(dp1625
g1189
F1
sg1190
g1191
sg1192
g1193
(g8
S'\x0b\x07O]N\x9a\x92?'
tRp1626
sg1195
F0
sg1196
I01
sg1197
F0
ssS'SliceStep_v_subj(1.0).338'
p1627
(dp1628
g1189
F1
sg1190
g1191
sg1192
g1193
(g8
S'my\xea\x97\xads\x94?'
tRp1629
sg1195
F0
sg1196
I01
sg1197
F0
ssS'SliceStep_t_subj(3).304'
p1630
(dp1631
g1189
F1
sg1190
g1191
sg1192
g1193
(g8
S'[\xbc\xc2\xfa\x19\x97\xd8?'
tRp1632
sg1195
F0
sg1196
I01
sg1197
F0
ssS'SliceStep_t_subj(3).305'
p1633
(dp1634
g1189
F1
sg1190
g1191
sg1192
g1193
(g8
S'PE\xb6D8G\xcc?'
tRp1635
sg1195
F0
sg1196
I01
sg1197
F0
ssS'SliceStep_v_subj(1.1).338'
p1636
(dp1637
g1189
F1
sg1190
g1191
sg1192
g1193
(g8
S'0\xa83`\x03K\xe1?'
tRp1638
sg1195
F0
sg1196
I01
sg1197
F0
ssS'SliceStep_v_subj(3.0).324'
p1639
(dp1640
g1189
F1
sg1190
g1191
sg1192
g1193
(g8
S'U\x9d\x8d\xf4\xd7\xacv?'
tRp1641
sg1195
F0
sg1196
I01
sg1197
F0
ssS'SliceStep_v_subj(3.0).325'
p1642
(dp1643
g1189
F1
sg1190
g1191
sg1192
g1193
(g8
S'\xa4\xd8\xf6,\x94\x80w?'
tRp1644
sg1195
F0
sg1196
I01
sg1197
F0
ssS'SliceStep_v_subj(3.0).322'
p1645
(dp1646
g1189
F1
sg1190
g1191
sg1192
g1193
(g8
S'S\xa1\xb0\xa4k\x03u?'
tRp1647
sg1195
F0
sg1196
I01
sg1197
F0
ssS'SliceStep_v_subj(3.0).323'
p1648
(dp1649
g1189
F1
sg1190
g1191
sg1192
g1193
(g8
S't\xfa\xa6\xfd\xea\xf8\xb1?'
tRp1650
sg1195
F0
sg1196
I01
sg1197
F0
ssS'kNormalNormal_z_trans(2)'
p1651
(dp1652
g1189
F1
sg1190
g1191
sg1192
g1193
(g8
S'\x8fh\xf8gy\xc9\xbc?'
tRp1653
sg1195
F0
sg1196
I01
sg1197
F0
ssS'SliceStep_v_subj(2.1).317'
p1654
(dp1655
g1189
F1
sg1190
g1191
sg1192
g1193
(g8
S'w\xb3\x7f\xd0\xe49\xed?'
tRp1656
sg1195
F0
sg1196
I01
sg1197
F0
ssS'SliceStep_v_subj(2.1).315'
p1657
(dp1658
g1189
F1
sg1190
g1191
sg1192
g1193
(g8
S'r\xb8\x0fn\xc6\x0f\xe9?'
tRp1659
sg1195
F0
sg1196
I01
sg1197
F0
ssS'SliceStep_v_subj(2.1).313'
p1660
(dp1661
g1189
F1
sg1190
g1191
sg1192
g1193
(g8
S'\x15\x94\xa1(\xdd\xea\xeb?'
tRp1662
sg1195
F0
sg1196
I01
sg1197
F0
ssS'SliceStep_v_subj(2.1).312'
p1663
(dp1664
g1189
F1
sg1190
g1191
sg1192
g1193
(g8
S'\x12\xd8\xd0\xa0Qs\xdc?'
tRp1665
sg1195
F0
sg1196
I01
sg1197
F0
ssS'SliceStep_v_subj(2.1).311'
p1666
(dp1667
g1189
F1
sg1190
g1191
sg1192
g1193
(g8
S'\xb9\xfa\xb3\xf3\xe7c\xe1?'
tRp1668
sg1195
F0
sg1196
I01
sg1197
F0
ssS'SliceStep_v_subj(2.1).310'
p1669
(dp1670
g1189
F1
sg1190
g1191
sg1192
g1193
(g8
S'\xa0\xe4j\x98\xfb\xe3\xe6?'
tRp1671
sg1195
F0
sg1196
I01
sg1197
F0
ssS'SliceStep_t_subj(2).303'
p1672
(dp1673
g1189
F1
sg1190
g1191
sg1192
g1193
(g8
S'\x16\x01\x8e\x04/B\xa4?'
tRp1674
sg1195
F0
sg1196
I01
sg1197
F0
ssS'SliceStep_v_subj(2.1).319'
p1675
(dp1676
g1189
F1
sg1190
g1191
sg1192
g1193
(g8
S'\xa8\x83\xa9\x97\x82\x95\xe8?'
tRp1677
sg1195
F0
sg1196
I01
sg1197
F0
ssS'SliceStep_t_subj(2).302'
p1678
(dp1679
g1189
F1
sg1190
g1191
sg1192
g1193
(g8
S'\xe0R\x97\xbb\xe58\xd3?'
tRp1680
sg1195
F0
sg1196
I01
sg1197
F0
ssS'SliceStep_v_subj(1.0).336'
p1681
(dp1682
g1189
F1
sg1190
g1191
sg1192
g1193
(g8
S'\x9dO\x9d\xaeR\xb2\xa2?'
tRp1683
sg1195
F0
sg1196
I01
sg1197
F0
ssS'SliceStep_a_subj(1).312'
p1684
(dp1685
g1189
F1
sg1190
g1191
sg1192
g1193
(g8
S'\xcf\xc4\xb0\xa9\xac\x90\xf3?'
tRp1686
sg1195
F0
sg1196
I01
sg1197
F0
ssS'SliceStep_a_subj(1).313'
p1687
(dp1688
g1189
F1
sg1190
g1191
sg1192
g1193
(g8
S'\xbf\x17\xec\xdd\x12N\xf2?'
tRp1689
sg1195
F0
sg1196
I01
sg1197
F0
ssS'SliceStep_z_std'
p1690
(dp1691
g1189
F1
sg1190
g1191
sg1192
g1193
(g8
S'\x8b\x98? T\x9f\xb8?'
tRp1692
sg1195
F0
sg1196
I01
sg1197
F0
ssS'SliceStep_a_subj(1).311'
p1693
(dp1694
g1189
F1
sg1190
g1191
sg1192
g1193
(g8
S'\xad\xf2-\xb8\x17\x07\xf3?'
tRp1695
sg1195
F0
sg1196
I01
sg1197
F0
ssS'SliceStep_a_subj(1).317'
p1696
(dp1697
g1189
F1
sg1190
g1191
sg1192
g1193
(g8
S'6\x82\xab\x07\x13\xa5\xf3?'
tRp1698
sg1195
F0
sg1196
I01
sg1197
F0
ssS'SliceStep_a_subj(1).314'
p1699
(dp1700
g1189
F1
sg1190
g1191
sg1192
g1193
(g8
S'p&_k\xe6\xc7\xf6?'
tRp1701
sg1195
F0
sg1196
I01
sg1197
F0
ssS'SliceStep_a_subj(1).315'
p1702
(dp1703
g1189
F1
sg1190
g1191
sg1192
g1193
(g8
S'\x00\xe3\x98\xd9\xb5\x1f\xf3?'
tRp1704
sg1195
F0
sg1196
I01
sg1197
F0
ssS'SliceStep_a_subj(1).319'
p1705
(dp1706
g1189
F1
sg1190
g1191
sg1192
g1193
(g8
S'S\xde\xa3.\xec\xde\xf2?'
tRp1707
sg1195
F0
sg1196
I01
sg1197
F0
ssS'SliceStep_v_subj(3.0).304'
p1708
(dp1709
g1189
F1
sg1190
g1191
sg1192
g1193
(g8
S'\xe1\xad\xcf\\S_\xac?'
tRp1710
sg1195
F0
sg1196
I01
sg1197
F0
ssS'SliceStep_t_subj(2).309'
p1711
(dp1712
g1189
F1
sg1190
g1191
sg1192
g1193
(g8
S' \xf7\x8c\xc0\x82\x17\xcd?'
tRp1713
sg1195
F0
sg1196
I01
sg1197
F0
ssS'SliceStep_v_subj(1.0).319'
p1714
(dp1715
g1189
F1
sg1190
g1191
sg1192
g1193
(g8
S'\xae\xacu<\x02.\x8b?'
tRp1716
sg1195
F0
sg1196
I01
sg1197
F0
ssS'SliceStep_v_subj(3.1).309'
p1717
(dp1718
g1189
F1
sg1190
g1191
sg1192
g1193
(g8
S'\xe1\xb5\xf3\xbe\xcdX\xd6?'
tRp1719
sg1195
F0
sg1196
I01
sg1197
F0
ssS'SliceStep_v_subj(3.1).308'
p1720
(dp1721
g1189
F1
sg1190
g1191
sg1192
g1193
(g8
S'7\x07\xe9\x8d\xf7\xed\xc5?'
tRp1722
sg1195
F0
sg1196
I01
sg1197
F0
ssS'SliceStep_v_subj(3.1).305'
p1723
(dp1724
g1189
F1
sg1190
g1191
sg1192
g1193
(g8
S'J\xe2h\x0b\xd4\x04\xe1?'
tRp1725
sg1195
F0
sg1196
I01
sg1197
F0
ssS'SliceStep_v_subj(3.1).304'
p1726
(dp1727
g1189
F1
sg1190
g1191
sg1192
g1193
(g8
S'\x9ec u\xa8%\xe4?'
tRp1728
sg1195
F0
sg1196
I01
sg1197
F0
ssS'SliceStep_v_subj(3.0).308'
p1729
(dp1730
g1189
F1
sg1190
g1191
sg1192
g1193
(g8
S'\x9d\n\xdc\x83TXx?'
tRp1731
sg1195
F0
sg1196
I01
sg1197
F0
ssS'SliceStep_v_subj(3.0).309'
p1732
(dp1733
g1189
F1
sg1190
g1191
sg1192
g1193
(g8
S'\x1c\x1af(\x8b\xebw?'
tRp1734
sg1195
F0
sg1196
I01
sg1197
F0
ssS'SliceStep_a_subj(3).334'
p1735
(dp1736
g1189
F1
sg1190
g1191
sg1192
g1193
(g8
S'>Z\xb86\xdd\xa4\xf9?'
tRp1737
sg1195
F0
sg1196
I01
sg1197
F0
ssS'SliceStep_z_subj_trans(3).309'
p1738
(dp1739
g1189
F1
sg1190
g1191
sg1192
g1193
(g8
S'\x1bR\xbf\xb7!9\xc6?'
tRp1740
sg1195
F0
sg1196
I01
sg1197
F0
ssS'SliceStep_z_subj_trans(3).308'
p1741
(dp1742
g1189
F1
sg1190
g1191
sg1192
g1193
(g8
S'\x8f3\x9d\x8c\x17\xe3\xb2?'
tRp1743
sg1195
F0
sg1196
I01
sg1197
F0
ssS'SliceStep_z_subj_trans(3).305'
p1744
(dp1745
g1189
F1
sg1190
g1191
sg1192
g1193
(g8
S"Mp\xbd`'\xb8\xc1?"
tRp1746
sg1195
F0
sg1196
I01
sg1197
F0
ssS'SliceStep_z_subj_trans(3).304'
p1747
(dp1748
g1189
F1
sg1190
g1191
sg1192
g1193
(g8
S'\xb8\xd8\x02-\x1c>\xc8?'
tRp1749
sg1195
F0
sg1196
I01
sg1197
F0
ssS'SliceStep_z_subj_trans(1).309'
p1750
(dp1751
g1189
F1
sg1190
g1191
sg1192
g1193
(g8
S'\x9b\x8fjs\x1bu\xd1?'
tRp1752
sg1195
F0
sg1196
I01
sg1197
F0
ssS'SliceStep_z_subj_trans(1).308'
p1753
(dp1754
g1189
F1
sg1190
g1191
sg1192
g1193
(g8
S'\xbc\xaae\xf6d\xaa\xb1?'
tRp1755
sg1195
F0
sg1196
I01
sg1197
F0
ssS'SliceStep_z_subj_trans(1).303'
p1756
(dp1757
g1189
F1
sg1190
g1191
sg1192
g1193
(g8
S'\x02\x8a\xb8\xbfU\x0f\xb1?'
tRp1758
sg1195
F0
sg1196
I01
sg1197
F0
ssS'SliceStep_z_subj_trans(1).302'
p1759
(dp1760
g1189
F1
sg1190
g1191
sg1192
g1193
(g8
S'\xa6\xf6\xd0\x18\xef\x19\xb4?'
tRp1761
sg1195
F0
sg1196
I01
sg1197
F0
ssS'SliceStep_z_subj_trans(1).305'
p1762
(dp1763
g1189
F1
sg1190
g1191
sg1192
g1193
(g8
S'\x01\xdb\x1b\xf2\xfcs\xd0?'
tRp1764
sg1195
F0
sg1196
I01
sg1197
F0
ssS'SliceStep_v_subj(1.1).325'
p1765
(dp1766
g1189
F1
sg1190
g1191
sg1192
g1193
(g8
S'\xd69\x04~\xaar\xf3?'
tRp1767
sg1195
F0
sg1196
I01
sg1197
F0
ssS'SliceStep_z_subj_trans(1).307'
p1768
(dp1769
g1189
F1
sg1190
g1191
sg1192
g1193
(g8
S'`f\xbc\x7f\x97\xfd\xb8?'
tRp1770
sg1195
F0
sg1196
I01
sg1197
F0
ssS'SliceStep_t(1)'
p1771
(dp1772
g1189
F1
sg1190
g1191
sg1192
g1193
(g8
S'\xabH\xb6\xacw\xad\xd4?'
tRp1773
sg1195
F0
sg1196
I01
sg1197
F0
ssS'SliceStep_v_subj(1.1).303'
p1774
(dp1775
g1189
F1
sg1190
g1191
sg1192
g1193
(g8
S'\x92\x99\x0e\xb5q\xe6\xf2?'
tRp1776
sg1195
F0
sg1196
I01
sg1197
F0
ssS'SliceStep_v_subj(1.1).302'
p1777
(dp1778
g1189
F1
sg1190
g1191
sg1192
g1193
(g8
S'\xcbZ\xc7\xc2\xda\xdd\xed?'
tRp1779
sg1195
F0
sg1196
I01
sg1197
F0
ssS'SliceStep_v_subj(1.1).305'
p1780
(dp1781
g1189
F1
sg1190
g1191
sg1192
g1193
(g8
S'>\x1e\xb6\xa7\xa6\xfc\xe4?'
tRp1782
sg1195
F0
sg1196
I01
sg1197
F0
ssS'SliceStep_v_subj(1.1).304'
p1783
(dp1784
g1189
F1
sg1190
g1191
sg1192
g1193
(g8
S't\n\xfa\xca\xacz\xe1?'
tRp1785
sg1195
F0
sg1196
I01
sg1197
F0
ssS'SliceStep_v_subj(1.1).307'
p1786
(dp1787
g1189
F1
sg1190
g1191
sg1192
g1193
(g8
S'\xe8\xcb\xe7$Gj\xc8?'
tRp1788
sg1195
F0
sg1196
I01
sg1197
F0
ssS'SliceStep_v_subj(1.1).309'
p1789
(dp1790
g1189
F1
sg1190
g1191
sg1192
g1193
(g8
S"\xc3'8\xdb_j\xe0?"
tRp1791
sg1195
F0
sg1196
I01
sg1197
F0
ssS'SliceStep_v_subj(1.1).323'
p1792
(dp1793
g1189
F1
sg1190
g1191
sg1192
g1193
(g8
S'\xceo\xd0\xf1\x1e]\xe0?'
tRp1794
sg1195
F0
sg1196
I01
sg1197
F0
ssS'SliceStep_v_subj(1.1).322'
p1795
(dp1796
g1189
F1
sg1190
g1191
sg1192
g1193
(g8
S'!!\xd4\x17\xfa\xf0\xe3?'
tRp1797
sg1195
F0
sg1196
I01
sg1197
F0
ssS'SliceStep_v_subj(1.1).320'
p1798
(dp1799
g1189
F1
sg1190
g1191
sg1192
g1193
(g8
S'\x13\x0fx\xf9dJ\xe4?'
tRp1800
sg1195
F0
sg1196
I01
sg1197
F0
ssS'SliceStep_v_subj(2.0).338'
p1801
(dp1802
g1189
F1
sg1190
g1191
sg1192
g1193
(g8
S'w\x915\xda\xe2K\xc6?'
tRp1803
sg1195
F0
sg1196
I01
sg1197
F0
ssS'SliceStep_v_subj(2.0).336'
p1804
(dp1805
g1189
F1
sg1190
g1191
sg1192
g1193
(g8
S'\t\x84\x02\x82\xcb\xac\xb1?'
tRp1806
sg1195
F0
sg1196
I01
sg1197
F0
ssS'SliceStep_v_subj(2.0).334'
p1807
(dp1808
g1189
F1
sg1190
g1191
sg1192
g1193
(g8
S'\xfe\xa8\xc1\xeac\xd1\xc2?'
tRp1809
sg1195
F0
sg1196
I01
sg1197
F0
ssS'SliceStep_v_subj(2.0).332'
p1810
(dp1811
g1189
F1
sg1190
g1191
sg1192
g1193
(g8
S'\xec\x98\x83\xc6\xdf\xe6\x91?'
tRp1812
sg1195
F0
sg1196
I01
sg1197
F0
ssS'SliceStep_a(3)'
p1813
(dp1814
g1189
F1
sg1190
g1191
sg1192
g1193
(g8
S'\x86\x9fTC\xbf\\\xf3?'
tRp1815
sg1195
F0
sg1196
I01
sg1197
F0
ssS'SliceStep_a_subj(2).319'
p1816
(dp1817
g1189
F1
sg1190
g1191
sg1192
g1193
(g8
S'\x1d\t\xa7/w\x85\xf5?'
tRp1818
sg1195
F0
sg1196
I01
sg1197
F0
ssS'SliceStep_z_subj_trans(2).328'
p1819
(dp1820
g1189
F1
sg1190
g1191
sg1192
g1193
(g8
S'\xa0?\x94\x98+C\xc8?'
tRp1821
sg1195
F0
sg1196
I01
sg1197
F0
ssS'SliceStep_z_subj_trans(2).329'
p1822
(dp1823
g1189
F1
sg1190
g1191
sg1192
g1193
(g8
S'2\t\xff\xf7\x9f4\xb1?'
tRp1824
sg1195
F0
sg1196
I01
sg1197
F0
ssS'SliceStep_z_subj_trans(2).324'
p1825
(dp1826
g1189
F1
sg1190
g1191
sg1192
g1193
(g8
S'V\xc7\xee\xce<\xd2\x95?'
tRp1827
sg1195
F0
sg1196
I01
sg1197
F0
ssS'SliceStep_z_subj_trans(2).325'
p1828
(dp1829
g1189
F1
sg1190
g1191
sg1192
g1193
(g8
S'\x08\x85\xf0\x08\xca}\xb7?'
tRp1830
sg1195
F0
sg1196
I01
sg1197
F0
ssS'SliceStep_z_subj_trans(2).322'
p1831
(dp1832
g1189
F1
sg1190
g1191
sg1192
g1193
(g8
S'B\x1e\x8d\xbd\x98\x16\xb5?'
tRp1833
sg1195
F0
sg1196
I01
sg1197
F0
ssS'SliceStep_z_subj_trans(2).323'
p1834
(dp1835
g1189
F1
sg1190
g1191
sg1192
g1193
(g8
S'\xe1\xad\xc2\xea\xeda\xb2?'
tRp1836
sg1195
F0
sg1196
I01
sg1197
F0
ssS'SliceStep_z_subj_trans(2).320'
p1837
(dp1838
g1189
F1
sg1190
g1191
sg1192
g1193
(g8
S'U\xd9@ \xe7\x03\xd4?'
tRp1839
sg1195
F0
sg1196
I01
sg1197
F0
ssS'SliceStep_t_subj(3).332'
p1840
(dp1841
g1189
F1
sg1190
g1191
sg1192
g1193
(g8
S'\x80\xf5\xd7]\xfd\xf1\xd0?'
tRp1842
sg1195
F0
sg1196
I01
sg1197
F0
ssS'SliceStep_a_subj(3).305'
p1843
(dp1844
g1189
F1
sg1190
g1191
sg1192
g1193
(g8
S'P\xf3\xd2\x1d=\xcb\xf4?'
tRp1845
sg1195
F0
sg1196
I01
sg1197
F0
ssS'SliceStep_t_subj(3).334'
p1846
(dp1847
g1189
F1
sg1190
g1191
sg1192
g1193
(g8
S'Oz\xfeU/\xcb\xc3?'
tRp1848
sg1195
F0
sg1196
I01
sg1197
F0
ssS'SliceStep_a_subj(3).309'
p1849
(dp1850
g1189
F1
sg1190
g1191
sg1192
g1193
(g8
S'\xa1U\xe1d\x01H\xf1?'
tRp1851
sg1195
F0
sg1196
I01
sg1197
F0
ssS'SliceStep_a_subj(3).308'
p1852
(dp1853
g1189
F1
sg1190
g1191
sg1192
g1193
(g8
S'\x9dW08\xe0\x81\xf2?'
tRp1854
sg1195
F0
sg1196
I01
sg1197
F0
ssS'SliceStep_a_subj(1).329'
p1855
(dp1856
g1189
F1
sg1190
g1191
sg1192
g1193
(g8
S'%U\xd0HAF\xf3?'
tRp1857
sg1195
F0
sg1196
I01
sg1197
F0
ssS'SliceStep_a_subj(1).328'
p1858
(dp1859
g1189
F1
sg1190
g1191
sg1192
g1193
(g8
S'\xd6\xa9\x07\xab\xed!\xf7?'
tRp1860
sg1195
F0
sg1196
I01
sg1197
F0
ssS'SliceStep_a_subj(1).323'
p1861
(dp1862
g1189
F1
sg1190
g1191
sg1192
g1193
(g8
S'\x947\xd5\xb3\xe7\xad\xef?'
tRp1863
sg1195
F0
sg1196
I01
sg1197
F0
ssS'SliceStep_a_subj(1).322'
p1864
(dp1865
g1189
F1
sg1190
g1191
sg1192
g1193
(g8
S'\xee\x19\xc1/>\r\xf2?'
tRp1866
sg1195
F0
sg1196
I01
sg1197
F0
ssS'SliceStep_a_subj(1).320'
p1867
(dp1868
g1189
F1
sg1190
g1191
sg1192
g1193
(g8
S'\xdaM<\xc8"\xeb\xef?'
tRp1869
sg1195
F0
sg1196
I01
sg1197
F0
ssS'SliceStep_a_subj(1).325'
p1870
(dp1871
g1189
F1
sg1190
g1191
sg1192
g1193
(g8
S'1\xde]\xed\xa1\xa5\xf4?'
tRp1872
sg1195
F0
sg1196
I01
sg1197
F0
ssS'SliceStep_a_subj(1).324'
p1873
(dp1874
g1189
F1
sg1190
g1191
sg1192
g1193
(g8
S'\x13-\xd6\x93n\xaf\xf5?'
tRp1875
sg1195
F0
sg1196
I01
sg1197
F0
ssS'SliceStep_v_subj(1.0).313'
p1876
(dp1877
g1189
F1
sg1190
g1191
sg1192
g1193
(g8
S'\x08\x85\x868\xde\x92\x92?'
tRp1878
sg1195
F0
sg1196
I01
sg1197
F0
ssS'SliceStep_v_subj(3.0).334'
p1879
(dp1880
g1189
F1
sg1190
g1191
sg1192
g1193
(g8
S'\x02>e\xd3\x84\x06\xbc?'
tRp1881
sg1195
F0
sg1196
I01
sg1197
F0
ssS'kNormalNormal_z_trans(3)'
p1882
(dp1883
g1189
F1
sg1190
g1191
sg1192
g1193
(g8
S'\xe8\x80\x10\xaa\x932\xb3?'
tRp1884
sg1195
F0
sg1196
I01
sg1197
F0
ssS'SliceStep_v_subj(3.0).332'
p1885
(dp1886
g1189
F1
sg1190
g1191
sg1192
g1193
(g8
S'\x057\x99\x1d\xbeJ\x86?'
tRp1887
sg1195
F0
sg1196
I01
sg1197
F0
ssS'SliceStep_t_subj(1).302'
p1888
(dp1889
g1189
F1
sg1190
g1191
sg1192
g1193
(g8
S'PZ\xce\xde\x191\xd3?'
tRp1890
sg1195
F0
sg1196
I01
sg1197
F0
ssS'SliceStep_t_subj(1).303'
p1891
(dp1892
g1189
F1
sg1190
g1191
sg1192
g1193
(g8
S'\x9e\xeb\x1a\xb8:X\xc3?'
tRp1893
sg1195
F0
sg1196
I01
sg1197
F0
ssS'SliceStep_t_subj(1).304'
p1894
(dp1895
g1189
F1
sg1190
g1191
sg1192
g1193
(g8
S"'\xe5\xf9\x7f{\xce\xd9?"
tRp1896
sg1195
F0
sg1196
I01
sg1197
F0
ssS'SliceStep_t_subj(1).305'
p1897
(dp1898
g1189
F1
sg1190
g1191
sg1192
g1193
(g8
S'\x18\xe6\xda\xe1_3\xd8?'
tRp1899
sg1195
F0
sg1196
I01
sg1197
F0
ssS'SliceStep_t_subj(1).307'
p1900
(dp1901
g1189
F1
sg1190
g1191
sg1192
g1193
(g8
S'\xbe\x1f\xf7\xf9\xbcG\xd7?'
tRp1902
sg1195
F0
sg1196
I01
sg1197
F0
ssS'SliceStep_t_subj(1).308'
p1903
(dp1904
g1189
F1
sg1190
g1191
sg1192
g1193
(g8
S'~\xb5\x1f\xb8\xf2V\xc8?'
tRp1905
sg1195
F0
sg1196
I01
sg1197
F0
ssS'SliceStep_t_subj(1).309'
p1906
(dp1907
g1189
F1
sg1190
g1191
sg1192
g1193
(g8
S'\xfa\x98\xeb\xb8\xe9f\xd4?'
tRp1908
sg1195
F0
sg1196
I01
sg1197
F0
ssS'SliceStep_a_subj(2).332'
p1909
(dp1910
g1189
F1
sg1190
g1191
sg1192
g1193
(g8
S'dd\xa4D\x85\x10\xf1?'
tRp1911
sg1195
F0
sg1196
I01
sg1197
F0
ssS'SliceStep_a_subj(2).334'
p1912
(dp1913
g1189
F1
sg1190
g1191
sg1192
g1193
(g8
S'\xd1\x88\x0e\x86\xcf\xa4\xfa?'
tRp1914
sg1195
F0
sg1196
I01
sg1197
F0
ssS'SliceStep_a_subj(2).336'
p1915
(dp1916
g1189
F1
sg1190
g1191
sg1192
g1193
(g8
S'\xc42<\xc9\xe4\x18\xfa?'
tRp1917
sg1195
F0
sg1196
I01
sg1197
F0
ssS'SliceStep_a_subj(2).338'
p1918
(dp1919
g1189
F1
sg1190
g1191
sg1192
g1193
(g8
S'"\xde\xd8\x00+\x11\xf9?'
tRp1920
sg1195
F0
sg1196
I01
sg1197
F0
ssS'kNormalNormal_v(3.1)'
p1921
(dp1922
g1189
F1
sg1190
g1191
sg1192
g1193
(g8
S'\xa17u\xaaGP\xd8?'
tRp1923
sg1195
F0
sg1196
I01
sg1197
F0
ssS'SliceStep_v_subj(1.0).324'
p1924
(dp1925
g1189
F1
sg1190
g1191
sg1192
g1193
(g8
S'\x8a\x8a\xabo\xee\xf4\xaf?'
tRp1926
sg1195
F0
sg1196
I01
sg1197
F0
ssS'SliceStep_v_subj(1.0).325'
p1927
(dp1928
g1189
F1
sg1190
g1191
sg1192
g1193
(g8
S'\xbd\xc7I\x85_Y\xb1?'
tRp1929
sg1195
F0
sg1196
I01
sg1197
F0
ssS'SliceStep_v_subj(1.0).320'
p1930
(dp1931
g1189
F1
sg1190
g1191
sg1192
g1193
(g8
S'\x07NA\xb8\t\xe8\x91?'
tRp1932
sg1195
F0
sg1196
I01
sg1197
F0
ssS'SliceStep_v_subj(1.0).322'
p1933
(dp1934
g1189
F1
sg1190
g1191
sg1192
g1193
(g8
S'\xac\x02z\x1fg\x88\x9d?'
tRp1935
sg1195
F0
sg1196
I01
sg1197
F0
ssS'SliceStep_t_subj(2).319'
p1936
(dp1937
g1189
F1
sg1190
g1191
sg1192
g1193
(g8
S'\xf6\xae\xc1n\x14\xfe\xcc?'
tRp1938
sg1195
F0
sg1196
I01
sg1197
F0
ssS'SliceStep_t_subj(2).317'
p1939
(dp1940
g1189
F1
sg1190
g1191
sg1192
g1193
(g8
S'\xa0\x15`O]\xc2\xb7?'
tRp1941
sg1195
F0
sg1196
I01
sg1197
F0
ssS'SliceStep_t_subj(2).315'
p1942
(dp1943
g1189
F1
sg1190
g1191
sg1192
g1193
(g8
S'\x88\xe7\x0eo\x96\xb3\xd3?'
tRp1944
sg1195
F0
sg1196
I01
sg1197
F0
ssS'SliceStep_v_subj(1.0).328'
p1945
(dp1946
g1189
F1
sg1190
g1191
sg1192
g1193
(g8
S'f\xed\xa0\x97\xec(\xa3?'
tRp1947
sg1195
F0
sg1196
I01
sg1197
F0
ssS'SliceStep_v_subj(1.0).329'
p1948
(dp1949
g1189
F1
sg1190
g1191
sg1192
g1193
(g8
S'\x8e~W\xfdZ.\xa4?'
tRp1950
sg1195
F0
sg1196
I01
sg1197
F0
ssS'SliceStep_t_subj(2).310'
p1951
(dp1952
g1189
F1
sg1190
g1191
sg1192
g1193
(g8
S'\xcf\xa2\x12\xb5\xfc\xd7\xbe?'
tRp1953
sg1195
F0
sg1196
I01
sg1197
F0
ssS'SliceStep_t_subj(2).311'
p1954
(dp1955
g1189
F1
sg1190
g1191
sg1192
g1193
(g8
S'%\x01\xde\xbb1\xd7\xca?'
tRp1956
sg1195
F0
sg1196
I01
sg1197
F0
ssS'SliceStep_a_subj(1).310'
p1957
(dp1958
g1189
F1
sg1190
g1191
sg1192
g1193
(g8
S'\x1f\xe5\xe2Z\x13\x01\xf3?'
tRp1959
sg1195
F0
sg1196
I01
sg1197
F0
ssS'SliceStep_v_subj(2.1).308'
p1960
(dp1961
g1189
F1
sg1190
g1191
sg1192
g1193
(g8
S'\x1d\xf3\xf6\xf4\xf7\xa3\xeb?'
tRp1962
sg1195
F0
sg1196
I01
sg1197
F0
ssS'SliceStep_v_subj(2.1).309'
p1963
(dp1964
g1189
F1
sg1190
g1191
sg1192
g1193
(g8
S'\xa4,\x81S\x12\x1c\xeb?'
tRp1965
sg1195
F0
sg1196
I01
sg1197
F0
ssS'SliceStep_v_subj(2.1).302'
p1966
(dp1967
g1189
F1
sg1190
g1191
sg1192
g1193
(g8
S'\xdeMN}\xa1\x86\xe6?'
tRp1968
sg1195
F0
sg1196
I01
sg1197
F0
ssS'SliceStep_v_subj(2.1).303'
p1969
(dp1970
g1189
F1
sg1190
g1191
sg1192
g1193
(g8
S'\x1f\xd4\x12\xc0\xde\x1b\xd2?'
tRp1971
sg1195
F0
sg1196
I01
sg1197
F0
ssS'SliceStep_v_subj(2.1).304'
p1972
(dp1973
g1189
F1
sg1190
g1191
sg1192
g1193
(g8
S'\x07\xca\x0b\x9b\x1b[\xe2?'
tRp1974
sg1195
F0
sg1196
I01
sg1197
F0
ssS'SliceStep_v_subj(2.1).305'
p1975
(dp1976
g1189
F1
sg1190
g1191
sg1192
g1193
(g8
S'}\x96U\x14\x95\xeb\xe1?'
tRp1977
sg1195
F0
sg1196
I01
sg1197
F0
ssS'SliceStep_v_subj(2.1).307'
p1978
(dp1979
g1189
F1
sg1190
g1191
sg1192
g1193
(g8
S'y\x83\xc8\xe4\xfb\x88\xf2?'
tRp1980
sg1195
F0
sg1196
I01
sg1197
F0
ssS'SliceStep_v_subj(3.1).310'
p1981
(dp1982
g1189
F1
sg1190
g1191
sg1192
g1193
(g8
S'\x9a\xa7\xa5\xc3EH\xeb?'
tRp1983
sg1195
F0
sg1196
I01
sg1197
F0
ssS'SliceStep_v_subj(3.1).311'
p1984
(dp1985
g1189
F1
sg1190
g1191
sg1192
g1193
(g8
S'3I\x05?l\x1f\xe3?'
tRp1986
sg1195
F0
sg1196
I01
sg1197
F0
ssS'SliceStep_v_subj(3.1).313'
p1987
(dp1988
g1189
F1
sg1190
g1191
sg1192
g1193
(g8
S'\x9f\x06\xdc\x07\xf4`\xdb?'
tRp1989
sg1195
F0
sg1196
I01
sg1197
F0
ssS'SliceStep_v_subj(3.1).315'
p1990
(dp1991
g1189
F1
sg1190
g1191
sg1192
g1193
(g8
S'-#\x9d?\x8e\x83\xc4?'
tRp1992
sg1195
F0
sg1196
I01
sg1197
F0
ssS'SliceStep_v_subj(3.1).317'
p1993
(dp1994
g1189
F1
sg1190
g1191
sg1192
g1193
(g8
S'\x94Q\x1f\x8c\x8b\xd8\xc3?'
tRp1995
sg1195
F0
sg1196
I01
sg1197
F0
ssS'SliceStep_v_subj(3.1).319'
p1996
(dp1997
g1189
F1
sg1190
g1191
sg1192
g1193
(g8
S'\xe3\xef\x008\xb5[\xdd?'
tRp1998
sg1195
F0
sg1196
I01
sg1197
F0
ssS'SliceStep_t_subj(3).319'
p1999
(dp2000
g1189
F1
sg1190
g1191
sg1192
g1193
(g8
S' \x8c\xc9q7\xdb\xb9?'
tRp2001
sg1195
F0
sg1196
I01
sg1197
F0
ssS'SliceStep_t_subj(2).332'
p2002
(dp2003
g1189
F1
sg1190
g1191
sg1192
g1193
(g8
S'0\xe9\xca\xd0\x81+\xd7?'
tRp2004
sg1195
F0
sg1196
I01
sg1197
F0
ssS'SliceStep_v_subj(3.0).305'
p2005
(dp2006
g1189
F1
sg1190
g1191
sg1192
g1193
(g8
S'\x9b\xe8\x1d\xa7f\xe7\x94?'
tRp2007
sg1195
F0
sg1196
I01
sg1197
F0
ssS'kNormalNormal_v(1.1)'
p2008
(dp2009
g1189
F1
sg1190
g1191
sg1192
g1193
(g8
S'oPS\xce\x8bd\xe7?'
tRp2010
sg1195
F0
sg1196
I01
sg1197
F0
ssS'SliceStep_a_subj(3).325'
p2011
(dp2012
g1189
F1
sg1190
g1191
sg1192
g1193
(g8
S'9,\xab\xb1\xe8\xee\xf1?'
tRp2013
sg1195
F0
sg1196
I01
sg1197
F0
ssS'SliceStep_v_subj(1.0).307'
p2014
(dp2015
g1189
F1
sg1190
g1191
sg1192
g1193
(g8
S'n>B6\xdc\xb4r?'
tRp2016
sg1195
F0
sg1196
I01
sg1197
F0
ssS'SliceStep_t_subj(3).317'
p2017
(dp2018
g1189
F1
sg1190
g1191
sg1192
g1193
(g8
S'j\xb5\x8d\x9a\xbf\xd2\xd4?'
tRp2019
sg1195
F0
sg1196
I01
sg1197
F0
ssS'SliceStep_z_subj_trans(3).319'
p2020
(dp2021
g1189
F1
sg1190
g1191
sg1192
g1193
(g8
S'O\x98{\x086\xc4\xb4?'
tRp2022
sg1195
F0
sg1196
I01
sg1197
F0
ssS'SliceStep_z_subj_trans(3).310'
p2023
(dp2024
g1189
F1
sg1190
g1191
sg1192
g1193
(g8
S'q\xd6\xf6\xc3:\xf3\xc1?'
tRp2025
sg1195
F0
sg1196
I01
sg1197
F0
ssS'SliceStep_z_subj_trans(3).311'
p2026
(dp2027
g1189
F1
sg1190
g1191
sg1192
g1193
(g8
S'`\x18\x12\x06/I\xb0?'
tRp2028
sg1195
F0
sg1196
I01
sg1197
F0
ssS'SliceStep_z_subj_trans(3).313'
p2029
(dp2030
g1189
F1
sg1190
g1191
sg1192
g1193
(g8
S'\x96\xbfl"H\x0f\xc0?'
tRp2031
sg1195
F0
sg1196
I01
sg1197
F0
ssS'SliceStep_z_subj_trans(3).315'
p2032
(dp2033
g1189
F1
sg1190
g1191
sg1192
g1193
(g8
S'\x9e\x9c\xf98\x941t?'
tRp2034
sg1195
F0
sg1196
I01
sg1197
F0
ssS'SliceStep_a_subj(3).320'
p2035
(dp2036
g1189
F1
sg1190
g1191
sg1192
g1193
(g8
S'G\xe9\x93\xc7\xf0\xac\xf1?'
tRp2037
sg1195
F0
sg1196
I01
sg1197
F0
ssS'SliceStep_a_subj(3).323'
p2038
(dp2039
g1189
F1
sg1190
g1191
sg1192
g1193
(g8
S'\xbc\xdc\xe379\x07\xf3?'
tRp2040
sg1195
F0
sg1196
I01
sg1197
F0
ssS'SliceStep_z_subj_trans(1).319'
p2041
(dp2042
g1189
F1
sg1190
g1191
sg1192
g1193
(g8
S'\xe4\xedJ\x9b\x81.\xd2?'
tRp2043
sg1195
F0
sg1196
I01
sg1197
F0
ssS'SliceStep_z_subj_trans(1).312'
p2044
(dp2045
g1189
F1
sg1190
g1191
sg1192
g1193
(g8
S'\xb7\xdb\xdd\xfd\xb0\xe9\xcf?'
tRp2046
sg1195
F0
sg1196
I01
sg1197
F0
ssS'SliceStep_z_subj_trans(1).313'
p2047
(dp2048
g1189
F1
sg1190
g1191
sg1192
g1193
(g8
S'\xc4\x18_s\x0b\x1e\xc1?'
tRp2049
sg1195
F0
sg1196
I01
sg1197
F0
ssS'SliceStep_z_subj_trans(1).310'
p2050
(dp2051
g1189
F1
sg1190
g1191
sg1192
g1193
(g8
S'\xacy\xce{Xx\xb7?'
tRp2052
sg1195
F0
sg1196
I01
sg1197
F0
ssS'SliceStep_z_subj_trans(1).311'
p2053
(dp2054
g1189
F1
sg1190
g1191
sg1192
g1193
(g8
S'\xfduH\x96\xf4\x8e\xce?'
tRp2055
sg1195
F0
sg1196
I01
sg1197
F0
ssS'SliceStep_z_subj_trans(1).317'
p2056
(dp2057
g1189
F1
sg1190
g1191
sg1192
g1193
(g8
S'\x02#\x81\xec\x1d\xcc\xc7?'
tRp2058
sg1195
F0
sg1196
I01
sg1197
F0
ssS'SliceStep_z_subj_trans(1).314'
p2059
(dp2060
g1189
F1
sg1190
g1191
sg1192
g1193
(g8
S'p\xb2\x8cRdB\x8c?'
tRp2061
sg1195
F0
sg1196
I01
sg1197
F0
ssS'SliceStep_z_subj_trans(1).315'
p2062
(dp2063
g1189
F1
sg1190
g1191
sg1192
g1193
(g8
S'\x0c\x19\x08\xc2*\xa3\xc9?'
tRp2064
sg1195
F0
sg1196
I01
sg1197
F0
ssS'SliceStep_v_subj(1.1).312'
p2065
(dp2066
g1189
F1
sg1190
g1191
sg1192
g1193
(g8
S'\x18\xc6X-\x87"\xf1?'
tRp2067
sg1195
F0
sg1196
I01
sg1197
F0
ssS'SliceStep_v_subj(1.1).313'
p2068
(dp2069
g1189
F1
sg1190
g1191
sg1192
g1193
(g8
S'4\x16\xf8\xefCp\xe1?'
tRp2070
sg1195
F0
sg1196
I01
sg1197
F0
ssS'SliceStep_v_subj(1.1).310'
p2071
(dp2072
g1189
F1
sg1190
g1191
sg1192
g1193
(g8
S'\xc7\xaf\xd5s\x80c\xcf?'
tRp2073
sg1195
F0
sg1196
I01
sg1197
F0
ssS'SliceStep_v_subj(1.1).311'
p2074
(dp2075
g1189
F1
sg1190
g1191
sg1192
g1193
(g8
S'\xaa\xbe\xbf\x1d"\x1a\xe6?'
tRp2076
sg1195
F0
sg1196
I01
sg1197
F0
ssS'SliceStep_v_subj(1.1).317'
p2077
(dp2078
g1189
F1
sg1190
g1191
sg1192
g1193
(g8
S'\xcf\x89\x10\xce6\x1c\xe7?'
tRp2079
sg1195
F0
sg1196
I01
sg1197
F0
ssS'SliceStep_v_subj(1.1).314'
p2080
(dp2081
g1189
F1
sg1190
g1191
sg1192
g1193
(g8
S'\xc2\x02\xddkn\xe4\xf4?'
tRp2082
sg1195
F0
sg1196
I01
sg1197
F0
ssS'SliceStep_v_subj(1.1).315'
p2083
(dp2084
g1189
F1
sg1190
g1191
sg1192
g1193
(g8
S'\xa1\xe8w\xb1G\xa2\xe9?'
tRp2085
sg1195
F0
sg1196
I01
sg1197
F0
ssS'SliceStep_v_subj(1.1).319'
p2086
(dp2087
g1189
F1
sg1190
g1191
sg1192
g1193
(g8
S'\xe5\xeaKk:7\xe3?'
tRp2088
sg1195
F0
sg1196
I01
sg1197
F0
ssS'SliceStep_v_subj(2.0).303'
p2089
(dp2090
g1189
F1
sg1190
g1191
sg1192
g1193
(g8
S'\xff\x06d0B\xb1\xa0?'
tRp2091
sg1195
F0
sg1196
I01
sg1197
F0
ssS'SliceStep_v_subj(2.0).302'
p2092
(dp2093
g1189
F1
sg1190
g1191
sg1192
g1193
(g8
S'\x13T~\xf5E!\x93?'
tRp2094
sg1195
F0
sg1196
I01
sg1197
F0
ssS'SliceStep_v_subj(2.0).307'
p2095
(dp2096
g1189
F1
sg1190
g1191
sg1192
g1193
(g8
S'\xd1\xcdj\xf6Y\x06\xb0?'
tRp2097
sg1195
F0
sg1196
I01
sg1197
F0
ssS'SliceStep_v_subj(2.0).305'
p2098
(dp2099
g1189
F1
sg1190
g1191
sg1192
g1193
(g8
S'\xe8!\xcb$X\x87\x9f?'
tRp2100
sg1195
F0
sg1196
I01
sg1197
F0
ssS'SliceStep_v_subj(2.0).304'
p2101
(dp2102
g1189
F1
sg1190
g1191
sg1192
g1193
(g8
S'+\xa4\x12h/\xa2\xa3?'
tRp2103
sg1195
F0
sg1196
I01
sg1197
F0
ssS'SliceStep_v_subj(2.0).309'
p2104
(dp2105
g1189
F1
sg1190
g1191
sg1192
g1193
(g8
S'\xdcoYG\x93 \xb7?'
tRp2106
sg1195
F0
sg1196
I01
sg1197
F0
ssS'SliceStep_v_subj(2.0).308'
p2107
(dp2108
g1189
F1
sg1190
g1191
sg1192
g1193
(g8
S'\xdd\xb0~\xf0qI\xbb?'
tRp2109
sg1195
F0
sg1196
I01
sg1197
F0
ssS'SliceStep_z_subj_trans(2).319'
p2110
(dp2111
g1189
F1
sg1190
g1191
sg1192
g1193
(g8
S'`\xa3(\x812\xe3\xbe?'
tRp2112
sg1195
F0
sg1196
I01
sg1197
F0
ssS'SliceStep_z_subj_trans(2).313'
p2113
(dp2114
g1189
F1
sg1190
g1191
sg1192
g1193
(g8
S'5\xb7\x1a\xf3RH\xc1?'
tRp2115
sg1195
F0
sg1196
I01
sg1197
F0
ssS'SliceStep_z_subj_trans(2).312'
p2116
(dp2117
g1189
F1
sg1190
g1191
sg1192
g1193
(g8
S'\x05\xbbjc\xee\xb4\xca?'
tRp2118
sg1195
F0
sg1196
I01
sg1197
F0
ssS'SliceStep_z_subj_trans(2).311'
p2119
(dp2120
g1189
F1
sg1190
g1191
sg1192
g1193
(g8
S'h\x86\x1f\x14wA\xb5?'
tRp2121
sg1195
F0
sg1196
I01
sg1197
F0
ssS'SliceStep_z_subj_trans(2).310'
p2122
(dp2123
g1189
F1
sg1190
g1191
sg1192
g1193
(g8
S'\xa2\xf0oUS0\xbe?'
tRp2124
sg1195
F0
sg1196
I01
sg1197
F0
ssS'SliceStep_z_subj_trans(2).317'
p2125
(dp2126
g1189
F1
sg1190
g1191
sg1192
g1193
(g8
S'\xa6\xdd|5\t:\xb5?'
tRp2127
sg1195
F0
sg1196
I01
sg1197
F0
ssS'SliceStep_z_subj_trans(2).315'
p2128
(dp2129
g1189
F1
sg1190
g1191
sg1192
g1193
(g8
S"{']\xc9\x1d\xd4\xb0?"
tRp2130
sg1195
F0
sg1196
I01
sg1197
F0
ssS'SliceStep_a_subj(3).310'
p2131
(dp2132
g1189
F1
sg1190
g1191
sg1192
g1193
(g8
S'\xeb\x8b\x1bj\x8e;\xfb?'
tRp2133
sg1195
F0
sg1196
I01
sg1197
F0
ssS'SliceStep_a_subj(3).311'
p2134
(dp2135
g1189
F1
sg1190
g1191
sg1192
g1193
(g8
S'\xa0\x95\xf3\xef>\xd6\xf6?'
tRp2136
sg1195
F0
sg1196
I01
sg1197
F0
ssS'SliceStep_t_subj(2).325'
p2137
(dp2138
g1189
F1
sg1190
g1191
sg1192
g1193
(g8
S'\xf9ELeG\xdb\xd6?'
tRp2139
sg1195
F0
sg1196
I01
sg1197
F0
ssS'SliceStep_t_subj(3).323'
p2140
(dp2141
g1189
F1
sg1190
g1191
sg1192
g1193
(g8
S'\xc0\xcaPz\xaaE\xd8?'
tRp2142
sg1195
F0
sg1196
I01
sg1197
F0
ssS'SliceStep_t_subj(2).323'
p2143
(dp2144
g1189
F1
sg1190
g1191
sg1192
g1193
(g8
S'\x8a\xc9\x9a&\xe9Z\xcc?'
tRp2145
sg1195
F0
sg1196
I01
sg1197
F0
ssS'SliceStep_t_subj(3).325'
p2146
(dp2147
g1189
F1
sg1190
g1191
sg1192
g1193
(g8
S'\x97\xf8&\xd1;\xd2\xb6?'
tRp2148
sg1195
F0
sg1196
I01
sg1197
F0
ssS'SliceStep_a_subj(3).317'
p2149
(dp2150
g1189
F1
sg1190
g1191
sg1192
g1193
(g8
S'\xe4\x95\xd6\xe3\xb1\xcc\xef?'
tRp2151
sg1195
F0
sg1196
I01
sg1197
F0
ssS'SliceStep_v_subj(1.0).315'
p2152
(dp2153
g1189
F1
sg1190
g1191
sg1192
g1193
(g8
S'\xc537\xbfy\xa6\xa0?'
tRp2154
sg1195
F0
sg1196
I01
sg1197
F0
ssS'SliceStep_v_subj(1.0).314'
p2155
(dp2156
g1189
F1
sg1190
g1191
sg1192
g1193
(g8
S'\x85\xf9\x8d\x81/p\xa8?'
tRp2157
sg1195
F0
sg1196
I01
sg1197
F0
ssS'SliceStep_v_subj(1.0).317'
p2158
(dp2159
g1189
F1
sg1190
g1191
sg1192
g1193
(g8
S'\x02\xcb\x82\xeb\xd0k\x94?'
tRp2160
sg1195
F0
sg1196
I01
sg1197
F0
ssS'SliceStep_v_subj(1.0).311'
p2161
(dp2162
g1189
F1
sg1190
g1191
sg1192
g1193
(g8
S'J\x01@$\xc7\xfcz?'
tRp2163
sg1195
F0
sg1196
I01
sg1197
F0
ssS'SliceStep_v_subj(1.0).310'
p2164
(dp2165
g1189
F1
sg1190
g1191
sg1192
g1193
(g8
S'\xcbAO\xe3\x8cPy?'
tRp2166
sg1195
F0
sg1196
I01
sg1197
F0
ssS'SliceStep_t_subj(2).329'
p2167
(dp2168
g1189
F1
sg1190
g1191
sg1192
g1193
(g8
S'\x83\xbcU\xa3\xfd\\\xcc?'
tRp2169
sg1195
F0
sg1196
I01
sg1197
F0
ssS'SliceStep_t_subj(2).328'
p2170
(dp2171
g1189
F1
sg1190
g1191
sg1192
g1193
(g8
S'H\xa4l9\xe2\x88\xd1?'
tRp2172
sg1195
F0
sg1196
I01
sg1197
F0
ssS'SliceStep_a_subj(1).338'
p2173
(dp2174
g1189
F1
sg1190
g1191
sg1192
g1193
(g8
S'\xd9n\xf0\x8a\xce\x03\xf4?'
tRp2175
sg1195
F0
sg1196
I01
sg1197
F0
ssS'SliceStep_a_subj(1).332'
p2176
(dp2177
g1189
F1
sg1190
g1191
sg1192
g1193
(g8
S'\xc9\xeb=\xb8\xc2h\xf0?'
tRp2178
sg1195
F0
sg1196
I01
sg1197
F0
ssS'SliceStep_a_subj(1).334'
p2179
(dp2180
g1189
F1
sg1190
g1191
sg1192
g1193
(g8
S'm<G\x86!\x04\xf2?'
tRp2181
sg1195
F0
sg1196
I01
sg1197
F0
ssS'SliceStep_a_subj(1).336'
p2182
(dp2183
g1189
F1
sg1190
g1191
sg1192
g1193
(g8
S'\x90=\x102\xa4\x19\xf7?'
tRp2184
sg1195
F0
sg1196
I01
sg1197
F0
ssS'SliceStep_v_subj(2.1).332'
p2185
(dp2186
g1189
F1
sg1190
g1191
sg1192
g1193
(g8
S'L\xe5AM\xd57\xe4?'
tRp2187
sg1195
F0
sg1196
I01
sg1197
F0
ssS'SliceStep_v_subj(2.1).334'
p2188
(dp2189
g1189
F1
sg1190
g1191
sg1192
g1193
(g8
S'|\x1f\x95"\xb5\xba\xec?'
tRp2190
sg1195
F0
sg1196
I01
sg1197
F0
ssS'SliceStep_v_subj(2.1).336'
p2191
(dp2192
g1189
F1
sg1190
g1191
sg1192
g1193
(g8
S'\xe3wf\xdf\xc0\xb4\xee?'
tRp2193
sg1195
F0
sg1196
I01
sg1197
F0
ssS'SliceStep_v_subj(2.1).338'
p2194
(dp2195
g1189
F1
sg1190
g1191
sg1192
g1193
(g8
S'Ompw\xe1u\xf1?'
tRp2196
sg1195
F0
sg1196
I01
sg1197
F0
ssS'SliceStep_v_subj(3.1).329'
p2197
(dp2198
g1189
F1
sg1190
g1191
sg1192
g1193
(g8
S'Z\xd6\x87\xa8\x9c\xb0\xc6?'
tRp2199
sg1195
F0
sg1196
I01
sg1197
F0
ssS'SliceStep_v_subj(3.0).329'
p2200
(dp2201
g1189
F1
sg1190
g1191
sg1192
g1193
(g8
S'\xe8fE\x8f\x04:\x88?'
tRp2202
sg1195
F0
sg1196
I01
sg1197
F0
ssS'SliceStep_v_subj(3.1).320'
p2203
(dp2204
g1189
F1
sg1190
g1191
sg1192
g1193
(g8
S'\xfb\x02.\xc4"4\xde?'
tRp2205
sg1195
F0
sg1196
I01
sg1197
F0
ssS'SliceStep_v_subj(3.1).323'
p2206
(dp2207
g1189
F1
sg1190
g1191
sg1192
g1193
(g8
S'\xab)\x85\xaf4\x0c\xe5?'
tRp2208
sg1195
F0
sg1196
I01
sg1197
F0
ssS'SliceStep_v_subj(3.1).322'
p2209
(dp2210
g1189
F1
sg1190
g1191
sg1192
g1193
(g8
S'\xd9L\xf3\xf7EF\xc2?'
tRp2211
sg1195
F0
sg1196
I01
sg1197
F0
ssS'SliceStep_v_subj(3.1).325'
p2212
(dp2213
g1189
F1
sg1190
g1191
sg1192
g1193
(g8
S'L\x0f\xf6\xbc\x1b\x92\xb5?'
tRp2214
sg1195
F0
sg1196
I01
sg1197
F0
ssS'SliceStep_v_subj(3.1).324'
p2215
(dp2216
g1189
F1
sg1190
g1191
sg1192
g1193
(g8
S'\xc2\xfd\xb6\xf1\xd2[\xb7?'
tRp2217
sg1195
F0
sg1196
I01
sg1197
F0
ssS'SliceStep_v_subj(3.0).320'
p2218
(dp2219
g1189
F1
sg1190
g1191
sg1192
g1193
(g8
S'c \xbat\xdd\x06\x88?'
tRp2220
sg1195
F0
sg1196
I01
sg1197
F0
ssS'kNormalNormal_v(1.0)'
p2221
(dp2222
g1189
F1
sg1190
g1191
sg1192
g1193
(g8
S'w{$\x13\\\xd5\xa0?'
tRp2223
sg1195
F0
sg1196
I01
sg1197
F0
ssS'SliceStep_t_subj(1).338'
p2224
(dp2225
g1189
F1
sg1190
g1191
sg1192
g1193
(g8
S'#L\x04\xed\x00\xa8\xcc?'
tRp2226
sg1195
F0
sg1196
I01
sg1197
F0
ssS'SliceStep_t_subj(1).334'
p2227
(dp2228
g1189
F1
sg1190
g1191
sg1192
g1193
(g8
S'\xf3\xc9\x16\x8cb\xba\xcf?'
tRp2229
sg1195
F0
sg1196
I01
sg1197
F0
ssS'SliceStep_t_subj(1).336'
p2230
(dp2231
g1189
F1
sg1190
g1191
sg1192
g1193
(g8
S'\xd5\x93I8\xcc\x15\xcb?'
tRp2232
sg1195
F0
sg1196
I01
sg1197
F0
ssS'SliceStep_t_subj(1).332'
p2233
(dp2234
g1189
F1
sg1190
g1191
sg1192
g1193
(g8
S'3sz\xef:\xbf\xd9?'
tRp2235
sg1195
F0
sg1196
I01
sg1197
F0
ssS'SliceStep_a_subj(3).313'
p2236
(dp2237
g1189
F1
sg1190
g1191
sg1192
g1193
(g8
S'XE\xab\xf2E\xd9\xf2?'
tRp2238
sg1195
F0
sg1196
I01
sg1197
F0
ssS'SliceStep_a_subj(2).328'
p2239
(dp2240
g1189
F1
sg1190
g1191
sg1192
g1193
(g8
S'Y\xa3\x11\x87\xaf\xaa\xf4?'
tRp2241
sg1195
F0
sg1196
I01
sg1197
F0
ssS'SliceStep_a_subj(2).329'
p2242
(dp2243
g1189
F1
sg1190
g1191
sg1192
g1193
(g8
S'\x92s\xc1\xd1"\xe9\xf5?'
tRp2244
sg1195
F0
sg1196
I01
sg1197
F0
ssS'SliceStep_a_subj(2).324'
p2245
(dp2246
g1189
F1
sg1190
g1191
sg1192
g1193
(g8
S'\x05\xbe\x8fdv\xe5\xf2?'
tRp2247
sg1195
F0
sg1196
I01
sg1197
F0
ssS'SliceStep_a_subj(2).325'
p2248
(dp2249
g1189
F1
sg1190
g1191
sg1192
g1193
(g8
S'k\xaf\xf0(*\xe6\xf0?'
tRp2250
sg1195
F0
sg1196
I01
sg1197
F0
ssS'SliceStep_a_subj(2).322'
p2251
(dp2252
g1189
F1
sg1190
g1191
sg1192
g1193
(g8
S'\t\xfd\xe1K\xac\x08\xf6?'
tRp2253
sg1195
F0
sg1196
I01
sg1197
F0
ssS'SliceStep_a_subj(2).323'
p2254
(dp2255
g1189
F1
sg1190
g1191
sg1192
g1193
(g8
S'>\n\xebM\xa0T\xf3?'
tRp2256
sg1195
F0
sg1196
I01
sg1197
F0
ssS'SliceStep_a_subj(2).320'
p2257
(dp2258
g1189
F1
sg1190
g1191
sg1192
g1193
(g8
S'\x9d\xd5z\xb5uM\xee?'
tRp2259
sg1195
F0
sg1196
I01
sg1197
F0
ssS'SliceStep_a_subj(3).315'
p2260
(dp2261
g1189
F1
sg1190
g1191
sg1192
g1193
(g8
S'\t\xd7E\xd7\xc3\xac\xf2?'
tRp2262
sg1195
F0
sg1196
I01
sg1197
F0
ssS'SliceStep_a(1)'
p2263
(dp2264
g1189
F1
sg1190
g1191
sg1192
g1193
(g8
S'\x12L$\xab\xffO\xf3?'
tRp2265
sg1195
F0
sg1196
I01
sg1197
F0
ssS'SliceStep_z_subj_trans(3).320'
p2266
(dp2267
g1189
F1
sg1190
g1191
sg1192
g1193
(g8
S'J2\xd4B\xe8\x19\xc4?'
tRp2268
sg1195
F0
sg1196
I01
sg1197
F0
ssS'SliceStep_z_subj_trans(3).323'
p2269
(dp2270
g1189
F1
sg1190
g1191
sg1192
g1193
(g8
S"m'Q\x98\xeb\x1d\xcd?"
tRp2271
sg1195
F0
sg1196
I01
sg1197
F0
ssS'SliceStep_z_subj_trans(3).322'
p2272
(dp2273
g1189
F1
sg1190
g1191
sg1192
g1193
(g8
S'\xd4\xcc\x1a\x18r\r\xba?'
tRp2274
sg1195
F0
sg1196
I01
sg1197
F0
ssS'SliceStep_z_subj_trans(3).325'
p2275
(dp2276
g1189
F1
sg1190
g1191
sg1192
g1193
(g8
S'\xb3\xac\xc9\xcc\xe9\xd4\xb1?'
tRp2277
sg1195
F0
sg1196
I01
sg1197
F0
ssS'SliceStep_z_subj_trans(3).324'
p2278
(dp2279
g1189
F1
sg1190
g1191
sg1192
g1193
(g8
S'\x99H\xdd\x0e\r\xee\x9f?'
tRp2280
sg1195
F0
sg1196
I01
sg1197
F0
ssS'SliceStep_z_subj_trans(3).329'
p2281
(dp2282
g1189
F1
sg1190
g1191
sg1192
g1193
(g8
S'\x80Tv\xdeC\xb2\xb1?'
tRp2283
sg1195
F0
sg1196
I01
sg1197
F0
ssS'kNormalNormal_v(3.0)'
p2284
(dp2285
g1189
F1
sg1190
g1191
sg1192
g1193
(g8
S'M\xdc\x88\xe0FC\xa1?'
tRp2286
sg1195
F0
sg1196
I01
sg1197
F0
sssS'sampler'
p2287
(dp2288
S'status'
p2289
S'ready'
p2290
sS'_iter'
p2291
g1193
(g7
(S'i8'
I0
I1
tRp2292
(I3
S'<'
NNNI-1
I-1
I0
tbS'\xd0\x07\x00\x00\x00\x00\x00\x00'
tRp2293
sS'_tune_interval'
p2294
I1000
sS'_tuned_count'
p2295
I0
sS'_tune_throughout'
p2296
I01
sS'_burn_till_tuned'
p2297
I00
sS'_current_iter'
p2298
I32
sS'_burn'
p2299
I1000
sS'_thin'
p2300
I1
sssg814
(dp2301
I0
g4
(g5
(I0
tS'b'
tRp2302
(I1
(I0
tg8
I00
S''
tbssg816
(dp2303
I0
g4
(g5
(I0
tS'b'
tRp2304
(I1
(I0
tg8
I00
S''
tbssg818
(dp2305
I0
g4
(g5
(I0
tS'b'
tRp2306
(I1
(I0
tg8
I00
S''
tbssg820
(dp2307
I0
g4
(g5
(I0
tS'b'
tRp2308
(I1
(I0
tg8
I00
S''
tbssg822
(dp2309
I0
g4
(g5
(I0
tS'b'
tRp2310
(I1
(I0
tg8
I00
S''
tbssg824
(dp2311
I0
g4
(g5
(I0
tS'b'
tRp2312
(I1
(I0
tg8
I00
S''
tbssg826
(dp2313
I0
g4
(g5
(I0
tS'b'
tRp2314
(I1
(I0
tg8
I00
S''
tbssg828
(dp2315
I0
g4
(g5
(I0
tS'b'
tRp2316
(I1
(I0
tg8
I00
S''
tbssg830
(dp2317
I0
g4
(g5
(I0
tS'b'
tRp2318
(I1
(I0
tg8
I00
S''
tbssg832
(dp2319
I0
g4
(g5
(I0
tS'b'
tRp2320
(I1
(I0
tg8
I00
S''
tbssg834
(dp2321
I0
g4
(g5
(I0
tS'b'
tRp2322
(I1
(I0
tg8
I00
S''
tbssg836
(dp2323
I0
g4
(g5
(I0
tS'b'
tRp2324
(I1
(I0
tg8
I00
S''
tbssg838
(dp2325
I0
g4
(g5
(I0
tS'b'
tRp2326
(I1
(I0
tg8
I00
S''
tbssg840
(dp2327
I0
g4
(g5
(I0
tS'b'
tRp2328
(I1
(I0
tg8
I00
S''
tbssg842
(dp2329
I0
g4
(g5
(I0
tS'b'
tRp2330
(I1
(I0
tg8
I00
S''
tbssg844
(dp2331
I0
g4
(g5
(I0
tS'b'
tRp2332
(I1
(I0
tg8
I00
S''
tbssg846
(dp2333
I0
g4
(g5
(I0
tS'b'
tRp2334
(I1
(I0
tg8
I00
S''
tbssg687
(dp2335
I0
g4
(g5
(I0
tS'b'
tRp2336
(I1
(I0
tg8
I00
S''
tbssS'z_subj(1).323'
p2337
(dp2338
I0
g4
(g5
(I0
tS'b'
tRp2339
(I1
(I0
tg8
I00
S''
tbssS'z_subj(1).322'
p2340
(dp2341
I0
g4
(g5
(I0
tS'b'
tRp2342
(I1
(I0
tg8
I00
S''
tbssS'z_subj(1).320'
p2343
(dp2344
I0
g4
(g5
(I0
tS'b'
tRp2345
(I1
(I0
tg8
I00
S''
tbssS'z_subj(1).325'
p2346
(dp2347
I0
g4
(g5
(I0
tS'b'
tRp2348
(I1
(I0
tg8
I00
S''
tbssS'z_subj(1).324'
p2349
(dp2350
I0
g4
(g5
(I0
tS'b'
tRp2351
(I1
(I0
tg8
I00
S''
tbssg849
(dp2352
I0
g4
(g5
(I0
tS'b'
tRp2353
(I1
(I0
tg8
I00
S''
tbssS'z_subj(1).329'
p2354
(dp2355
I0
g4
(g5
(I0
tS'b'
tRp2356
(I1
(I0
tg8
I00
S''
tbssS'z_subj(1).328'
p2357
(dp2358
I0
g4
(g5
(I0
tS'b'
tRp2359
(I1
(I0
tg8
I00
S''
tbssg851
(dp2360
I0
g4
(g5
(I0
tS'b'
tRp2361
(I1
(I0
tg8
I00
S''
tbssg853
(dp2362
I0
g4
(g5
(I0
tS'b'
tRp2363
(I1
(I0
tg8
I00
S''
tbssg855
(dp2364
I0
g4
(g5
(I0
tS'b'
tRp2365
(I1
(I0
tg8
I00
S''
tbssg857
(dp2366
I0
g4
(g5
(I0
tS'b'
tRp2367
(I1
(I0
tg8
I00
S''
tbssg859
(dp2368
I0
g4
(g5
(I0
tS'b'
tRp2369
(I1
(I0
tg8
I00
S''
tbssg861
(dp2370
I0
g4
(g5
(I0
tS'b'
tRp2371
(I1
(I0
tg8
I00
S''
tbssg863
(dp2372
I0
g4
(g5
(I0
tS'b'
tRp2373
(I1
(I0
tg8
I00
S''
tbssg865
(dp2374
I0
g4
(g5
(I0
tS'b'
tRp2375
(I1
(I0
tg8
I00
S''
tbssg867
(dp2376
I0
g4
(g5
(I0
tS'b'
tRp2377
(I1
(I0
tg8
I00
S''
tbssS'z_subj(3).329'
p2378
(dp2379
I0
g4
(g5
(I0
tS'b'
tRp2380
(I1
(I0
tg8
I00
S''
tbssg869
(dp2381
I0
g4
(g5
(I0
tS'b'
tRp2382
(I1
(I0
tg8
I00
S''
tbssS'z_subj(3).325'
p2383
(dp2384
I0
g4
(g5
(I0
tS'b'
tRp2385
(I1
(I0
tg8
I00
S''
tbssS'z_subj(3).324'
p2386
(dp2387
I0
g4
(g5
(I0
tS'b'
tRp2388
(I1
(I0
tg8
I00
S''
tbssg872
(dp2389
I0
g4
(g5
(I0
tS'b'
tRp2390
(I1
(I0
tg8
I00
S''
tbssg874
(dp2391
I0
g4
(g5
(I0
tS'b'
tRp2392
(I1
(I0
tg8
I00
S''
tbssS'z_subj(3).320'
p2393
(dp2394
I0
g4
(g5
(I0
tS'b'
tRp2395
(I1
(I0
tg8
I00
S''
tbssS'z_subj(3).323'
p2396
(dp2397
I0
g4
(g5
(I0
tS'b'
tRp2398
(I1
(I0
tg8
I00
S''
tbssg878
(dp2399
I0
g4
(g5
(I0
tS'b'
tRp2400
(I1
(I0
tg8
I00
S''
tbssg882
(dp2401
I0
g4
(g5
(I0
tS'b'
tRp2402
(I1
(I0
tg8
I00
S''
tbssg884
(dp2403
I0
g4
(g5
(I0
tS'b'
tRp2404
(I1
(I0
tg8
I00
S''
tbssg886
(dp2405
I0
g4
(g5
(I0
tS'b'
tRp2406
(I1
(I0
tg8
I00
S''
tbssg888
(dp2407
I0
g4
(g5
(I0
tS'b'
tRp2408
(I1
(I0
tg8
I00
S''
tbssg890
(dp2409
I0
g4
(g5
(I0
tS'b'
tRp2410
(I1
(I0
tg8
I00
S''
tbssg892
(dp2411
I0
g4
(g5
(I0
tS'b'
tRp2412
(I1
(I0
tg8
I00
S''
tbssg894
(dp2413
I0
g4
(g5
(I0
tS'b'
tRp2414
(I1
(I0
tg8
I00
S''
tbssg896
(dp2415
I0
g4
(g5
(I0
tS'b'
tRp2416
(I1
(I0
tg8
I00
S''
tbssg898
(dp2417
I0
g4
(g5
(I0
tS'b'
tRp2418
(I1
(I0
tg8
I00
S''
tbssg900
(dp2419
I0
g4
(g5
(I0
tS'b'
tRp2420
(I1
(I0
tg8
I00
S''
tbssg902
(dp2421
I0
g4
(g5
(I0
tS'b'
tRp2422
(I1
(I0
tg8
I00
S''
tbssg904
(dp2423
I0
g4
(g5
(I0
tS'b'
tRp2424
(I1
(I0
tg8
I00
S''
tbssg906
(dp2425
I0
g4
(g5
(I0
tS'b'
tRp2426
(I1
(I0
tg8
I00
S''
tbssg908
(dp2427
I0
g4
(g5
(I0
tS'b'
tRp2428
(I1
(I0
tg8
I00
S''
tbssg910
(dp2429
I0
g4
(g5
(I0
tS'b'
tRp2430
(I1
(I0
tg8
I00
S''
tbssg912
(dp2431
I0
g4
(g5
(I0
tS'b'
tRp2432
(I1
(I0
tg8
I00
S''
tbssg1008
(dp2433
I0
g4
(g5
(I0
tS'b'
tRp2434
(I1
(I0
tg8
I00
S''
tbssg916
(dp2435
I0
g4
(g5
(I0
tS'b'
tRp2436
(I1
(I0
tg8
I00
S''
tbssg918
(dp2437
I0
g4
(g5
(I0
tS'b'
tRp2438
(I1
(I0
tg8
I00
S''
tbssg1019
(dp2439
I0
g4
(g5
(I0
tS'b'
tRp2440
(I1
(I0
tg8
I00
S''
tbssg922
(dp2441
I0
g4
(g5
(I0
tS'b'
tRp2442
(I1
(I0
tg8
I00
S''
tbssg924
(dp2443
I0
g4
(g5
(I0
tS'b'
tRp2444
(I1
(I0
tg8
I00
S''
tbssg926
(dp2445
I0
g4
(g5
(I0
tS'b'
tRp2446
(I1
(I0
tg8
I00
S''
tbssg928
(dp2447
I0
g4
(g5
(I0
tS'b'
tRp2448
(I1
(I0
tg8
I00
S''
tbssg930
(dp2449
I0
g4
(g5
(I0
tS'b'
tRp2450
(I1
(I0
tg8
I00
S''
tbssg932
(dp2451
I0
g4
(g5
(I0
tS'b'
tRp2452
(I1
(I0
tg8
I00
S''
tbssg934
(dp2453
I0
g4
(g5
(I0
tS'b'
tRp2454
(I1
(I0
tg8
I00
S''
tbssg735
(dp2455
I0
g4
(g5
(I0
tS'b'
tRp2456
(I1
(I0
tg8
I00
S''
tbssg938
(dp2457
I0
g4
(g5
(I0
tS'b'
tRp2458
(I1
(I0
tg8
I00
S''
tbssg940
(dp2459
I0
g4
(g5
(I0
tS'b'
tRp2460
(I1
(I0
tg8
I00
S''
tbssg942
(dp2461
I0
g4
(g5
(I0
tS'b'
tRp2462
(I1
(I0
tg8
I00
S''
tbssg944
(dp2463
I0
g4
(g5
(I0
tS'b'
tRp2464
(I1
(I0
tg8
I00
S''
tbssg946
(dp2465
I0
g4
(g5
(I0
tS'b'
tRp2466
(I1
(I0
tg8
I00
S''
tbssg948
(dp2467
I0
g4
(g5
(I0
tS'b'
tRp2468
(I1
(I0
tg8
I00
S''
tbssg950
(dp2469
I0
g4
(g5
(I0
tS'b'
tRp2470
(I1
(I0
tg8
I00
S''
tbssg952
(dp2471
I0
g4
(g5
(I0
tS'b'
tRp2472
(I1
(I0
tg8
I00
S''
tbssS'z_subj(1).302'
p2473
(dp2474
I0
g4
(g5
(I0
tS'b'
tRp2475
(I1
(I0
tg8
I00
S''
tbssg954
(dp2476
I0
g4
(g5
(I0
tS'b'
tRp2477
(I1
(I0
tg8
I00
S''
tbssg956
(dp2478
I0
g4
(g5
(I0
tS'b'
tRp2479
(I1
(I0
tg8
I00
S''
tbssS'z(2)'
p2480
(dp2481
I0
g4
(g5
(I0
tS'b'
tRp2482
(I1
(I0
tg8
I00
S''
tbssg958
(dp2483
I0
g4
(g5
(I0
tS'b'
tRp2484
(I1
(I0
tg8
I00
S''
tbssg960
(dp2485
I0
g4
(g5
(I0
tS'b'
tRp2486
(I1
(I0
tg8
I00
S''
tbssg962
(dp2487
I0
g4
(g5
(I0
tS'b'
tRp2488
(I1
(I0
tg8
I00
S''
tbssg964
(dp2489
I0
g4
(g5
(I0
tS'b'
tRp2490
(I1
(I0
tg8
I00
S''
tbssg966
(dp2491
I0
g4
(g5
(I0
tS'b'
tRp2492
(I1
(I0
tg8
I00
S''
tbssg968
(dp2493
I0
g4
(g5
(I0
tS'b'
tRp2494
(I1
(I0
tg8
I00
S''
tbssg970
(dp2495
I0
g4
(g5
(I0
tS'b'
tRp2496
(I1
(I0
tg8
I00
S''
tbssg972
(dp2497
I0
g4
(g5
(I0
tS'b'
tRp2498
(I1
(I0
tg8
I00
S''
tbssg974
(dp2499
I0
g4
(g5
(I0
tS'b'
tRp2500
(I1
(I0
tg8
I00
S''
tbssg976
(dp2501
I0
g4
(g5
(I0
tS'b'
tRp2502
(I1
(I0
tg8
I00
S''
tbssg978
(dp2503
I0
g4
(g5
(I0
tS'b'
tRp2504
(I1
(I0
tg8
I00
S''
tbssS'z_subj(2).328'
p2505
(dp2506
I0
g4
(g5
(I0
tS'b'
tRp2507
(I1
(I0
tg8
I00
S''
tbssS'z_subj(2).329'
p2508
(dp2509
I0
g4
(g5
(I0
tS'b'
tRp2510
(I1
(I0
tg8
I00
S''
tbssS'z_subj(2).322'
p2511
(dp2512
I0
g4
(g5
(I0
tS'b'
tRp2513
(I1
(I0
tg8
I00
S''
tbssS'z_subj(2).323'
p2514
(dp2515
I0
g4
(g5
(I0
tS'b'
tRp2516
(I1
(I0
tg8
I00
S''
tbssS'z_subj(2).320'
p2517
(dp2518
I0
g4
(g5
(I0
tS'b'
tRp2519
(I1
(I0
tg8
I00
S''
tbssS'z_subj(2).324'
p2520
(dp2521
I0
g4
(g5
(I0
tS'b'
tRp2522
(I1
(I0
tg8
I00
S''
tbssS'z_subj(2).325'
p2523
(dp2524
I0
g4
(g5
(I0
tS'b'
tRp2525
(I1
(I0
tg8
I00
S''
tbssg982
(dp2526
I0
g4
(g5
(I0
tS'b'
tRp2527
(I1
(I0
tg8
I00
S''
tbssg984
(dp2528
I0
g4
(g5
(I0
tS'b'
tRp2529
(I1
(I0
tg8
I00
S''
tbssg986
(dp2530
I0
g4
(g5
(I0
tS'b'
tRp2531
(I1
(I0
tg8
I00
S''
tbssg988
(dp2532
I0
g4
(g5
(I0
tS'b'
tRp2533
(I1
(I0
tg8
I00
S''
tbssg990
(dp2534
I0
g4
(g5
(I0
tS'b'
tRp2535
(I1
(I0
tg8
I00
S''
tbssg992
(dp2536
I0
g4
(g5
(I0
tS'b'
tRp2537
(I1
(I0
tg8
I00
S''
tbssg994
(dp2538
I0
g4
(g5
(I0
tS'b'
tRp2539
(I1
(I0
tg8
I00
S''
tbssg996
(dp2540
I0
g4
(g5
(I0
tS'b'
tRp2541
(I1
(I0
tg8
I00
S''
tbssg998
(dp2542
I0
g4
(g5
(I0
tS'b'
tRp2543
(I1
(I0
tg8
I00
S''
tbssg1000
(dp2544
I0
g4
(g5
(I0
tS'b'
tRp2545
(I1
(I0
tg8
I00
S''
tbssg1002
(dp2546
I0
g4
(g5
(I0
tS'b'
tRp2547
(I1
(I0
tg8
I00
S''
tbssg1004
(dp2548
I0
g4
(g5
(I0
tS'b'
tRp2549
(I1
(I0
tg8
I00
S''
tbssg1006
(dp2550
I0
g4
(g5
(I0
tS'b'
tRp2551
(I1
(I0
tg8
I00
S''
tbssg914
(dp2552
I0
g4
(g5
(I0
tS'b'
tRp2553
(I1
(I0
tg8
I00
S''
tbssg1010
(dp2554
I0
g4
(g5
(I0
tS'b'
tRp2555
(I1
(I0
tg8
I00
S''
tbssg1012
(dp2556
I0
g4
(g5
(I0
tS'b'
tRp2557
(I1
(I0
tg8
I00
S''
tbssg880
(dp2558
I0
g4
(g5
(I0
tS'b'
tRp2559
(I1
(I0
tg8
I00
S''
tbssg1015
(dp2560
I0
g4
(g5
(I0
tS'b'
tRp2561
(I1
(I0
tg8
I00
S''
tbssg1017
(dp2562
I0
g4
(g5
(I0
tS'b'
tRp2563
(I1
(I0
tg8
I00
S''
tbssg920
(dp2564
I0
g4
(g5
(I0
tS'b'
tRp2565
(I1
(I0
tg8
I00
S''
tbssg1021
(dp2566
I0
g4
(g5
(I0
tS'b'
tRp2567
(I1
(I0
tg8
I00
S''
tbssg1023
(dp2568
I0
g4
(g5
(I0
tS'b'
tRp2569
(I1
(I0
tg8
I00
S''
tbssg1025
(dp2570
I0
g4
(g5
(I0
tS'b'
tRp2571
(I1
(I0
tg8
I00
S''
tbssg1027
(dp2572
I0
g4
(g5
(I0
tS'b'
tRp2573
(I1
(I0
tg8
I00
S''
tbssg1029
(dp2574
I0
g4
(g5
(I0
tS'b'
tRp2575
(I1
(I0
tg8
I00
S''
tbssS'z(1)'
p2576
(dp2577
I0
g4
(g5
(I0
tS'b'
tRp2578
(I1
(I0
tg8
I00
S''
tbssg1031
(dp2579
I0
g4
(g5
(I0
tS'b'
tRp2580
(I1
(I0
tg8
I00
S''
tbssg980
(dp2581
I0
g4
(g5
(I0
tS'b'
tRp2582
(I1
(I0
tg8
I00
S''
tbssg1035
(dp2583
I0
g4
(g5
(I0
tS'b'
tRp2584
(I1
(I0
tg8
I00
S''
tbssg1037
(dp2585
I0
g4
(g5
(I0
tS'b'
tRp2586
(I1
(I0
tg8
I00
S''
tbssg1039
(dp2587
I0
g4
(g5
(I0
tS'b'
tRp2588
(I1
(I0
tg8
I00
S''
tbssg1041
(dp2589
I0
g4
(g5
(I0
tS'b'
tRp2590
(I1
(I0
tg8
I00
S''
tbssg1043
(dp2591
I0
g4
(g5
(I0
tS'b'
tRp2592
(I1
(I0
tg8
I00
S''
tbssg1045
(dp2593
I0
g4
(g5
(I0
tS'b'
tRp2594
(I1
(I0
tg8
I00
S''
tbssg1047
(dp2595
I0
g4
(g5
(I0
tS'b'
tRp2596
(I1
(I0
tg8
I00
S''
tbssg1049
(dp2597
I0
g4
(g5
(I0
tS'b'
tRp2598
(I1
(I0
tg8
I00
S''
tbssS'deviance'
p2599
(dp2600
I0
g4
(g5
(I0
tS'b'
tRp2601
(I1
(I0
tg8
I00
S''
tbssS'z_subj(3).334'
p2602
(dp2603
I0
g4
(g5
(I0
tS'b'
tRp2604
(I1
(I0
tg8
I00
S''
tbssS'z_subj(3).332'
p2605
(dp2606
I0
g4
(g5
(I0
tS'b'
tRp2607
(I1
(I0
tg8
I00
S''
tbssg1051
(dp2608
I0
g4
(g5
(I0
tS'b'
tRp2609
(I1
(I0
tg8
I00
S''
tbssg1053
(dp2610
I0
g4
(g5
(I0
tS'b'
tRp2611
(I1
(I0
tg8
I00
S''
tbssg1055
(dp2612
I0
g4
(g5
(I0
tS'b'
tRp2613
(I1
(I0
tg8
I00
S''
tbssg1057
(dp2614
I0
g4
(g5
(I0
tS'b'
tRp2615
(I1
(I0
tg8
I00
S''
tbssg1059
(dp2616
I0
g4
(g5
(I0
tS'b'
tRp2617
(I1
(I0
tg8
I00
S''
tbssg1061
(dp2618
I0
g4
(g5
(I0
tS'b'
tRp2619
(I1
(I0
tg8
I00
S''
tbssg1063
(dp2620
I0
g4
(g5
(I0
tS'b'
tRp2621
(I1
(I0
tg8
I00
S''
tbssg1065
(dp2622
I0
g4
(g5
(I0
tS'b'
tRp2623
(I1
(I0
tg8
I00
S''
tbssg936
(dp2624
I0
g4
(g5
(I0
tS'b'
tRp2625
(I1
(I0
tg8
I00
S''
tbssS'z_subj(1).338'
p2626
(dp2627
I0
g4
(g5
(I0
tS'b'
tRp2628
(I1
(I0
tg8
I00
S''
tbssS'z_subj(1).334'
p2629
(dp2630
I0
g4
(g5
(I0
tS'b'
tRp2631
(I1
(I0
tg8
I00
S''
tbssS'z_subj(1).336'
p2632
(dp2633
I0
g4
(g5
(I0
tS'b'
tRp2634
(I1
(I0
tg8
I00
S''
tbssS'z_subj(1).332'
p2635
(dp2636
I0
g4
(g5
(I0
tS'b'
tRp2637
(I1
(I0
tg8
I00
S''
tbssg1069
(dp2638
I0
g4
(g5
(I0
tS'b'
tRp2639
(I1
(I0
tg8
I00
S''
tbssg1071
(dp2640
I0
g4
(g5
(I0
tS'b'
tRp2641
(I1
(I0
tg8
I00
S''
tbssg1033
(dp2642
I0
g4
(g5
(I0
tS'b'
tRp2643
(I1
(I0
tg8
I00
S''
tbssg1073
(dp2644
I0
g4
(g5
(I0
tS'b'
tRp2645
(I1
(I0
tg8
I00
S''
tbssg1075
(dp2646
I0
g4
(g5
(I0
tS'b'
tRp2647
(I1
(I0
tg8
I00
S''
tbssg1077
(dp2648
I0
g4
(g5
(I0
tS'b'
tRp2649
(I1
(I0
tg8
I00
S''
tbssg1079
(dp2650
I0
g4
(g5
(I0
tS'b'
tRp2651
(I1
(I0
tg8
I00
S''
tbssg1081
(dp2652
I0
g4
(g5
(I0
tS'b'
tRp2653
(I1
(I0
tg8
I00
S''
tbssg1083
(dp2654
I0
g4
(g5
(I0
tS'b'
tRp2655
(I1
(I0
tg8
I00
S''
tbssg1085
(dp2656
I0
g4
(g5
(I0
tS'b'
tRp2657
(I1
(I0
tg8
I00
S''
tbssg1087
(dp2658
I0
g4
(g5
(I0
tS'b'
tRp2659
(I1
(I0
tg8
I00
S''
tbssg1089
(dp2660
I0
g4
(g5
(I0
tS'b'
tRp2661
(I1
(I0
tg8
I00
S''
tbssg810
(dp2662
I0
g4
(g5
(I0
tS'b'
tRp2663
(I1
(I0
tg8
I00
S''
tbssg1092
(dp2664
I0
g4
(g5
(I0
tS'b'
tRp2665
(I1
(I0
tg8
I00
S''
tbssg1094
(dp2666
I0
g4
(g5
(I0
tS'b'
tRp2667
(I1
(I0
tg8
I00
S''
tbssg1096
(dp2668
I0
g4
(g5
(I0
tS'b'
tRp2669
(I1
(I0
tg8
I00
S''
tbssg1098
(dp2670
I0
g4
(g5
(I0
tS'b'
tRp2671
(I1
(I0
tg8
I00
S''
tbssg1100
(dp2672
I0
g4
(g5
(I0
tS'b'
tRp2673
(I1
(I0
tg8
I00
S''
tbssg1102
(dp2674
I0
g4
(g5
(I0
tS'b'
tRp2675
(I1
(I0
tg8
I00
S''
tbssg1104
(dp2676
I0
g4
(g5
(I0
tS'b'
tRp2677
(I1
(I0
tg8
I00
S''
tbssg1106
(dp2678
I0
g4
(g5
(I0
tS'b'
tRp2679
(I1
(I0
tg8
I00
S''
tbssg1108
(dp2680
I0
g4
(g5
(I0
tS'b'
tRp2681
(I1
(I0
tg8
I00
S''
tbssg1110
(dp2682
I0
g4
(g5
(I0
tS'b'
tRp2683
(I1
(I0
tg8
I00
S''
tbssg1112
(dp2684
I0
g4
(g5
(I0
tS'b'
tRp2685
(I1
(I0
tg8
I00
S''
tbssg1114
(dp2686
I0
g4
(g5
(I0
tS'b'
tRp2687
(I1
(I0
tg8
I00
S''
tbssg1116
(dp2688
I0
g4
(g5
(I0
tS'b'
tRp2689
(I1
(I0
tg8
I00
S''
tbssg1118
(dp2690
I0
g4
(g5
(I0
tS'b'
tRp2691
(I1
(I0
tg8
I00
S''
tbssg1120
(dp2692
I0
g4
(g5
(I0
tS'b'
tRp2693
(I1
(I0
tg8
I00
S''
tbssg1122
(dp2694
I0
g4
(g5
(I0
tS'b'
tRp2695
(I1
(I0
tg8
I00
S''
tbssg1124
(dp2696
I0
g4
(g5
(I0
tS'b'
tRp2697
(I1
(I0
tg8
I00
S''
tbssg1126
(dp2698
I0
g4
(g5
(I0
tS'b'
tRp2699
(I1
(I0
tg8
I00
S''
tbssg1128
(dp2700
I0
g4
(g5
(I0
tS'b'
tRp2701
(I1
(I0
tg8
I00
S''
tbssg1130
(dp2702
I0
g4
(g5
(I0
tS'b'
tRp2703
(I1
(I0
tg8
I00
S''
tbssS'z_subj(1).305'
p2704
(dp2705
I0
g4
(g5
(I0
tS'b'
tRp2706
(I1
(I0
tg8
I00
S''
tbssS'z_subj(1).304'
p2707
(dp2708
I0
g4
(g5
(I0
tS'b'
tRp2709
(I1
(I0
tg8
I00
S''
tbssS'z_subj(1).307'
p2710
(dp2711
I0
g4
(g5
(I0
tS'b'
tRp2712
(I1
(I0
tg8
I00
S''
tbssS'z_subj(1).303'
p2713
(dp2714
I0
g4
(g5
(I0
tS'b'
tRp2715
(I1
(I0
tg8
I00
S''
tbssg716
(dp2716
I0
g4
(g5
(I0
tS'b'
tRp2717
(I1
(I0
tg8
I00
S''
tbssS'z_subj(1).309'
p2718
(dp2719
I0
g4
(g5
(I0
tS'b'
tRp2720
(I1
(I0
tg8
I00
S''
tbssS'z_subj(1).308'
p2721
(dp2722
I0
g4
(g5
(I0
tS'b'
tRp2723
(I1
(I0
tg8
I00
S''
tbssg1132
(dp2724
I0
g4
(g5
(I0
tS'b'
tRp2725
(I1
(I0
tg8
I00
S''
tbssg1134
(dp2726
I0
g4
(g5
(I0
tS'b'
tRp2727
(I1
(I0
tg8
I00
S''
tbssg1136
(dp2728
I0
g4
(g5
(I0
tS'b'
tRp2729
(I1
(I0
tg8
I00
S''
tbssg1138
(dp2730
I0
g4
(g5
(I0
tS'b'
tRp2731
(I1
(I0
tg8
I00
S''
tbssg1140
(dp2732
I0
g4
(g5
(I0
tS'b'
tRp2733
(I1
(I0
tg8
I00
S''
tbssg1142
(dp2734
I0
g4
(g5
(I0
tS'b'
tRp2735
(I1
(I0
tg8
I00
S''
tbssg1144
(dp2736
I0
g4
(g5
(I0
tS'b'
tRp2737
(I1
(I0
tg8
I00
S''
tbssg1146
(dp2738
I0
g4
(g5
(I0
tS'b'
tRp2739
(I1
(I0
tg8
I00
S''
tbssg1067
(dp2740
I0
g4
(g5
(I0
tS'b'
tRp2741
(I1
(I0
tg8
I00
S''
tbssg1148
(dp2742
I0
g4
(g5
(I0
tS'b'
tRp2743
(I1
(I0
tg8
I00
S''
tbssg762
(dp2744
I0
g4
(g5
(I0
tS'b'
tRp2745
(I1
(I0
tg8
I00
S''
tbssg1151
(dp2746
I0
g4
(g5
(I0
tS'b'
tRp2747
(I1
(I0
tg8
I00
S''
tbssg1153
(dp2748
I0
g4
(g5
(I0
tS'b'
tRp2749
(I1
(I0
tg8
I00
S''
tbssg1155
(dp2750
I0
g4
(g5
(I0
tS'b'
tRp2751
(I1
(I0
tg8
I00
S''
tbssg1157
(dp2752
I0
g4
(g5
(I0
tS'b'
tRp2753
(I1
(I0
tg8
I00
S''
tbssg1159
(dp2754
I0
g4
(g5
(I0
tS'b'
tRp2755
(I1
(I0
tg8
I00
S''
tbssg1161
(dp2756
I0
g4
(g5
(I0
tS'b'
tRp2757
(I1
(I0
tg8
I00
S''
tbssg1163
(dp2758
I0
g4
(g5
(I0
tS'b'
tRp2759
(I1
(I0
tg8
I00
S''
tbssg1165
(dp2760
I0
g4
(g5
(I0
tS'b'
tRp2761
(I1
(I0
tg8
I00
S''
tbssg1167
(dp2762
I0
g4
(g5
(I0
tS'b'
tRp2763
(I1
(I0
tg8
I00
S''
tbssg1169
(dp2764
I0
g4
(g5
(I0
tS'b'
tRp2765
(I1
(I0
tg8
I00
S''
tbssg1171
(dp2766
I0
g4
(g5
(I0
tS'b'
tRp2767
(I1
(I0
tg8
I00
S''
tbssg1173
(dp2768
I0
g4
(g5
(I0
tS'b'
tRp2769
(I1
(I0
tg8
I00
S''
tbssg1175
(dp2770
I0
g4
(g5
(I0
tS'b'
tRp2771
(I1
(I0
tg8
I00
S''
tbssg1177
(dp2772
I0
g4
(g5
(I0
tS'b'
tRp2773
(I1
(I0
tg8
I00
S''
tbssg1179
(dp2774
I0
g4
(g5
(I0
tS'b'
tRp2775
(I1
(I0
tg8
I00
S''
tbssg1181
(dp2776
I0
g4
(g5
(I0
tS'b'
tRp2777
(I1
(I0
tg8
I00
S''
tbssS'z_subj(2).317'
p2778
(dp2779
I0
g4
(g5
(I0
tS'b'
tRp2780
(I1
(I0
tg8
I00
S''
tbssS'z_subj(2).315'
p2781
(dp2782
I0
g4
(g5
(I0
tS'b'
tRp2783
(I1
(I0
tg8
I00
S''
tbssS'z_subj(2).313'
p2784
(dp2785
I0
g4
(g5
(I0
tS'b'
tRp2786
(I1
(I0
tg8
I00
S''
tbssS'z_subj(2).312'
p2787
(dp2788
I0
g4
(g5
(I0
tS'b'
tRp2789
(I1
(I0
tg8
I00
S''
tbssS'z_subj(2).311'
p2790
(dp2791
I0
g4
(g5
(I0
tS'b'
tRp2792
(I1
(I0
tg8
I00
S''
tbssS'z_subj(2).310'
p2793
(dp2794
I0
g4
(g5
(I0
tS'b'
tRp2795
(I1
(I0
tg8
I00
S''
tbssS'z_subj(2).319'
p2796
(dp2797
I0
g4
(g5
(I0
tS'b'
tRp2798
(I1
(I0
tg8
I00
S''
tbssg1183
(dp2799
I0
g4
(g5
(I0
tS'b'
tRp2800
(I1
(I0
tg8
I00
S''
tbss.